
kernel/kernel:     file format elf64-littleriscv


Disassembly of section .text:

0000000080000000 <_entry>:
    80000000:	0000b117          	auipc	sp,0xb
    80000004:	3d013103          	ld	sp,976(sp) # 8000b3d0 <_GLOBAL_OFFSET_TABLE_+0x8>
    80000008:	6505                	lui	a0,0x1
    8000000a:	f14025f3          	csrr	a1,mhartid
    8000000e:	0585                	add	a1,a1,1
    80000010:	02b50533          	mul	a0,a0,a1
    80000014:	912a                	add	sp,sp,a0
    80000016:	309050ef          	jal	80005b1e <start>

000000008000001a <spin>:
    8000001a:	a001                	j	8000001a <spin>

000000008000001c <kfree>:
// which normally should have been returned by a
// call to kalloc().  (The exception is when
// initializing the allocator; see kinit above.)
void
kfree(void *pa)
{
    8000001c:	1101                	add	sp,sp,-32
    8000001e:	ec06                	sd	ra,24(sp)
    80000020:	e822                	sd	s0,16(sp)
    80000022:	e426                	sd	s1,8(sp)
    80000024:	e04a                	sd	s2,0(sp)
    80000026:	1000                	add	s0,sp,32
  struct run *r;

  if(((uint64)pa % PGSIZE) != 0 || (char*)pa < end || (uint64)pa >= PHYSTOP)
    80000028:	03451793          	sll	a5,a0,0x34
    8000002c:	ebb9                	bnez	a5,80000082 <kfree+0x66>
    8000002e:	84aa                	mv	s1,a0
    80000030:	00025797          	auipc	a5,0x25
    80000034:	86078793          	add	a5,a5,-1952 # 80024890 <end>
    80000038:	04f56563          	bltu	a0,a5,80000082 <kfree+0x66>
    8000003c:	47c5                	li	a5,17
    8000003e:	07ee                	sll	a5,a5,0x1b
    80000040:	04f57163          	bgeu	a0,a5,80000082 <kfree+0x66>
    panic("kfree");

  // Fill with junk to catch dangling refs.
  memset(pa, 1, PGSIZE);
    80000044:	6605                	lui	a2,0x1
    80000046:	4585                	li	a1,1
    80000048:	00000097          	auipc	ra,0x0
    8000004c:	17c080e7          	jalr	380(ra) # 800001c4 <memset>

  r = (struct run*)pa;

  acquire(&kmem.lock);
    80000050:	0000b917          	auipc	s2,0xb
    80000054:	3d090913          	add	s2,s2,976 # 8000b420 <kmem>
    80000058:	854a                	mv	a0,s2
    8000005a:	00006097          	auipc	ra,0x6
    8000005e:	512080e7          	jalr	1298(ra) # 8000656c <acquire>
  r->next = kmem.freelist;
    80000062:	01893783          	ld	a5,24(s2)
    80000066:	e09c                	sd	a5,0(s1)
  kmem.freelist = r;
    80000068:	00993c23          	sd	s1,24(s2)
  release(&kmem.lock);
    8000006c:	854a                	mv	a0,s2
    8000006e:	00006097          	auipc	ra,0x6
    80000072:	5b2080e7          	jalr	1458(ra) # 80006620 <release>
}
    80000076:	60e2                	ld	ra,24(sp)
    80000078:	6442                	ld	s0,16(sp)
    8000007a:	64a2                	ld	s1,8(sp)
    8000007c:	6902                	ld	s2,0(sp)
    8000007e:	6105                	add	sp,sp,32
    80000080:	8082                	ret
    panic("kfree");
    80000082:	00008517          	auipc	a0,0x8
    80000086:	f7e50513          	add	a0,a0,-130 # 80008000 <etext>
    8000008a:	00006097          	auipc	ra,0x6
    8000008e:	f68080e7          	jalr	-152(ra) # 80005ff2 <panic>

0000000080000092 <freerange>:
{
    80000092:	7179                	add	sp,sp,-48
    80000094:	f406                	sd	ra,40(sp)
    80000096:	f022                	sd	s0,32(sp)
    80000098:	ec26                	sd	s1,24(sp)
    8000009a:	1800                	add	s0,sp,48
  p = (char*)PGROUNDUP((uint64)pa_start);
    8000009c:	6785                	lui	a5,0x1
    8000009e:	fff78713          	add	a4,a5,-1 # fff <_entry-0x7ffff001>
    800000a2:	00e504b3          	add	s1,a0,a4
    800000a6:	777d                	lui	a4,0xfffff
    800000a8:	8cf9                	and	s1,s1,a4
  for(; p + PGSIZE <= (char*)pa_end; p += PGSIZE)
    800000aa:	94be                	add	s1,s1,a5
    800000ac:	0295e463          	bltu	a1,s1,800000d4 <freerange+0x42>
    800000b0:	e84a                	sd	s2,16(sp)
    800000b2:	e44e                	sd	s3,8(sp)
    800000b4:	e052                	sd	s4,0(sp)
    800000b6:	892e                	mv	s2,a1
    kfree(p);
    800000b8:	7a7d                	lui	s4,0xfffff
  for(; p + PGSIZE <= (char*)pa_end; p += PGSIZE)
    800000ba:	6985                	lui	s3,0x1
    kfree(p);
    800000bc:	01448533          	add	a0,s1,s4
    800000c0:	00000097          	auipc	ra,0x0
    800000c4:	f5c080e7          	jalr	-164(ra) # 8000001c <kfree>
  for(; p + PGSIZE <= (char*)pa_end; p += PGSIZE)
    800000c8:	94ce                	add	s1,s1,s3
    800000ca:	fe9979e3          	bgeu	s2,s1,800000bc <freerange+0x2a>
    800000ce:	6942                	ld	s2,16(sp)
    800000d0:	69a2                	ld	s3,8(sp)
    800000d2:	6a02                	ld	s4,0(sp)
}
    800000d4:	70a2                	ld	ra,40(sp)
    800000d6:	7402                	ld	s0,32(sp)
    800000d8:	64e2                	ld	s1,24(sp)
    800000da:	6145                	add	sp,sp,48
    800000dc:	8082                	ret

00000000800000de <kinit>:
{
    800000de:	1141                	add	sp,sp,-16
    800000e0:	e406                	sd	ra,8(sp)
    800000e2:	e022                	sd	s0,0(sp)
    800000e4:	0800                	add	s0,sp,16
  initlock(&kmem.lock, "kmem");
    800000e6:	00008597          	auipc	a1,0x8
    800000ea:	f2a58593          	add	a1,a1,-214 # 80008010 <etext+0x10>
    800000ee:	0000b517          	auipc	a0,0xb
    800000f2:	33250513          	add	a0,a0,818 # 8000b420 <kmem>
    800000f6:	00006097          	auipc	ra,0x6
    800000fa:	3e6080e7          	jalr	998(ra) # 800064dc <initlock>
  freerange(end, (void*)PHYSTOP);
    800000fe:	45c5                	li	a1,17
    80000100:	05ee                	sll	a1,a1,0x1b
    80000102:	00024517          	auipc	a0,0x24
    80000106:	78e50513          	add	a0,a0,1934 # 80024890 <end>
    8000010a:	00000097          	auipc	ra,0x0
    8000010e:	f88080e7          	jalr	-120(ra) # 80000092 <freerange>
}
    80000112:	60a2                	ld	ra,8(sp)
    80000114:	6402                	ld	s0,0(sp)
    80000116:	0141                	add	sp,sp,16
    80000118:	8082                	ret

000000008000011a <kalloc>:
// Allocate one 4096-byte page of physical memory.
// Returns a pointer that the kernel can use.
// Returns 0 if the memory cannot be allocated.
void *
kalloc(void)
{
    8000011a:	1101                	add	sp,sp,-32
    8000011c:	ec06                	sd	ra,24(sp)
    8000011e:	e822                	sd	s0,16(sp)
    80000120:	e426                	sd	s1,8(sp)
    80000122:	1000                	add	s0,sp,32
  struct run *r;

  acquire(&kmem.lock);
    80000124:	0000b497          	auipc	s1,0xb
    80000128:	2fc48493          	add	s1,s1,764 # 8000b420 <kmem>
    8000012c:	8526                	mv	a0,s1
    8000012e:	00006097          	auipc	ra,0x6
    80000132:	43e080e7          	jalr	1086(ra) # 8000656c <acquire>
  r = kmem.freelist;
    80000136:	6c84                	ld	s1,24(s1)
  if(r)
    80000138:	c885                	beqz	s1,80000168 <kalloc+0x4e>
    kmem.freelist = r->next;
    8000013a:	609c                	ld	a5,0(s1)
    8000013c:	0000b517          	auipc	a0,0xb
    80000140:	2e450513          	add	a0,a0,740 # 8000b420 <kmem>
    80000144:	ed1c                	sd	a5,24(a0)
  release(&kmem.lock);
    80000146:	00006097          	auipc	ra,0x6
    8000014a:	4da080e7          	jalr	1242(ra) # 80006620 <release>

  if(r)
    memset((char*)r, 5, PGSIZE); // fill with junk
    8000014e:	6605                	lui	a2,0x1
    80000150:	4595                	li	a1,5
    80000152:	8526                	mv	a0,s1
    80000154:	00000097          	auipc	ra,0x0
    80000158:	070080e7          	jalr	112(ra) # 800001c4 <memset>
  return (void*)r;
}
    8000015c:	8526                	mv	a0,s1
    8000015e:	60e2                	ld	ra,24(sp)
    80000160:	6442                	ld	s0,16(sp)
    80000162:	64a2                	ld	s1,8(sp)
    80000164:	6105                	add	sp,sp,32
    80000166:	8082                	ret
  release(&kmem.lock);
    80000168:	0000b517          	auipc	a0,0xb
    8000016c:	2b850513          	add	a0,a0,696 # 8000b420 <kmem>
    80000170:	00006097          	auipc	ra,0x6
    80000174:	4b0080e7          	jalr	1200(ra) # 80006620 <release>
  if(r)
    80000178:	b7d5                	j	8000015c <kalloc+0x42>

000000008000017a <fmem>:

uint64 fmem(void){
    8000017a:	1101                	add	sp,sp,-32
    8000017c:	ec06                	sd	ra,24(sp)
    8000017e:	e822                	sd	s0,16(sp)
    80000180:	e426                	sd	s1,8(sp)
    80000182:	1000                	add	s0,sp,32
    struct run *cur;
    uint64 count = 0;

    acquire(&kmem.lock);
    80000184:	0000b497          	auipc	s1,0xb
    80000188:	29c48493          	add	s1,s1,668 # 8000b420 <kmem>
    8000018c:	8526                	mv	a0,s1
    8000018e:	00006097          	auipc	ra,0x6
    80000192:	3de080e7          	jalr	990(ra) # 8000656c <acquire>
    cur = kmem.freelist;
    80000196:	6c9c                	ld	a5,24(s1)
    while(cur) {
    80000198:	c785                	beqz	a5,800001c0 <fmem+0x46>
    uint64 count = 0;
    8000019a:	4481                	li	s1,0
      cur = cur->next;
    8000019c:	639c                	ld	a5,0(a5)
      count++;
    8000019e:	0485                	add	s1,s1,1
    while(cur) {
    800001a0:	fff5                	bnez	a5,8000019c <fmem+0x22>
    }
    release(&kmem.lock);
    800001a2:	0000b517          	auipc	a0,0xb
    800001a6:	27e50513          	add	a0,a0,638 # 8000b420 <kmem>
    800001aa:	00006097          	auipc	ra,0x6
    800001ae:	476080e7          	jalr	1142(ra) # 80006620 <release>

    return (count << 12);
}
    800001b2:	00c49513          	sll	a0,s1,0xc
    800001b6:	60e2                	ld	ra,24(sp)
    800001b8:	6442                	ld	s0,16(sp)
    800001ba:	64a2                	ld	s1,8(sp)
    800001bc:	6105                	add	sp,sp,32
    800001be:	8082                	ret
    uint64 count = 0;
    800001c0:	4481                	li	s1,0
    800001c2:	b7c5                	j	800001a2 <fmem+0x28>

00000000800001c4 <memset>:
#include "types.h"

void*
memset(void *dst, int c, uint n)
{
    800001c4:	1141                	add	sp,sp,-16
    800001c6:	e422                	sd	s0,8(sp)
    800001c8:	0800                	add	s0,sp,16
  char *cdst = (char *) dst;
  int i;
  for(i = 0; i < n; i++){
    800001ca:	ca19                	beqz	a2,800001e0 <memset+0x1c>
    800001cc:	87aa                	mv	a5,a0
    800001ce:	1602                	sll	a2,a2,0x20
    800001d0:	9201                	srl	a2,a2,0x20
    800001d2:	00a60733          	add	a4,a2,a0
    cdst[i] = c;
    800001d6:	00b78023          	sb	a1,0(a5)
  for(i = 0; i < n; i++){
    800001da:	0785                	add	a5,a5,1
    800001dc:	fee79de3          	bne	a5,a4,800001d6 <memset+0x12>
  }
  return dst;
}
    800001e0:	6422                	ld	s0,8(sp)
    800001e2:	0141                	add	sp,sp,16
    800001e4:	8082                	ret

00000000800001e6 <memcmp>:

int
memcmp(const void *v1, const void *v2, uint n)
{
    800001e6:	1141                	add	sp,sp,-16
    800001e8:	e422                	sd	s0,8(sp)
    800001ea:	0800                	add	s0,sp,16
  const uchar *s1, *s2;

  s1 = v1;
  s2 = v2;
  while(n-- > 0){
    800001ec:	ca05                	beqz	a2,8000021c <memcmp+0x36>
    800001ee:	fff6069b          	addw	a3,a2,-1 # fff <_entry-0x7ffff001>
    800001f2:	1682                	sll	a3,a3,0x20
    800001f4:	9281                	srl	a3,a3,0x20
    800001f6:	0685                	add	a3,a3,1
    800001f8:	96aa                	add	a3,a3,a0
    if(*s1 != *s2)
    800001fa:	00054783          	lbu	a5,0(a0)
    800001fe:	0005c703          	lbu	a4,0(a1)
    80000202:	00e79863          	bne	a5,a4,80000212 <memcmp+0x2c>
      return *s1 - *s2;
    s1++, s2++;
    80000206:	0505                	add	a0,a0,1
    80000208:	0585                	add	a1,a1,1
  while(n-- > 0){
    8000020a:	fed518e3          	bne	a0,a3,800001fa <memcmp+0x14>
  }

  return 0;
    8000020e:	4501                	li	a0,0
    80000210:	a019                	j	80000216 <memcmp+0x30>
      return *s1 - *s2;
    80000212:	40e7853b          	subw	a0,a5,a4
}
    80000216:	6422                	ld	s0,8(sp)
    80000218:	0141                	add	sp,sp,16
    8000021a:	8082                	ret
  return 0;
    8000021c:	4501                	li	a0,0
    8000021e:	bfe5                	j	80000216 <memcmp+0x30>

0000000080000220 <memmove>:

void*
memmove(void *dst, const void *src, uint n)
{
    80000220:	1141                	add	sp,sp,-16
    80000222:	e422                	sd	s0,8(sp)
    80000224:	0800                	add	s0,sp,16
  const char *s;
  char *d;

  if(n == 0)
    80000226:	c205                	beqz	a2,80000246 <memmove+0x26>
    return dst;
  
  s = src;
  d = dst;
  if(s < d && s + n > d){
    80000228:	02a5e263          	bltu	a1,a0,8000024c <memmove+0x2c>
    s += n;
    d += n;
    while(n-- > 0)
      *--d = *--s;
  } else
    while(n-- > 0)
    8000022c:	1602                	sll	a2,a2,0x20
    8000022e:	9201                	srl	a2,a2,0x20
    80000230:	00c587b3          	add	a5,a1,a2
{
    80000234:	872a                	mv	a4,a0
      *d++ = *s++;
    80000236:	0585                	add	a1,a1,1
    80000238:	0705                	add	a4,a4,1 # fffffffffffff001 <end+0xffffffff7ffda771>
    8000023a:	fff5c683          	lbu	a3,-1(a1)
    8000023e:	fed70fa3          	sb	a3,-1(a4)
    while(n-- > 0)
    80000242:	feb79ae3          	bne	a5,a1,80000236 <memmove+0x16>

  return dst;
}
    80000246:	6422                	ld	s0,8(sp)
    80000248:	0141                	add	sp,sp,16
    8000024a:	8082                	ret
  if(s < d && s + n > d){
    8000024c:	02061693          	sll	a3,a2,0x20
    80000250:	9281                	srl	a3,a3,0x20
    80000252:	00d58733          	add	a4,a1,a3
    80000256:	fce57be3          	bgeu	a0,a4,8000022c <memmove+0xc>
    d += n;
    8000025a:	96aa                	add	a3,a3,a0
    while(n-- > 0)
    8000025c:	fff6079b          	addw	a5,a2,-1
    80000260:	1782                	sll	a5,a5,0x20
    80000262:	9381                	srl	a5,a5,0x20
    80000264:	fff7c793          	not	a5,a5
    80000268:	97ba                	add	a5,a5,a4
      *--d = *--s;
    8000026a:	177d                	add	a4,a4,-1
    8000026c:	16fd                	add	a3,a3,-1
    8000026e:	00074603          	lbu	a2,0(a4)
    80000272:	00c68023          	sb	a2,0(a3)
    while(n-- > 0)
    80000276:	fef71ae3          	bne	a4,a5,8000026a <memmove+0x4a>
    8000027a:	b7f1                	j	80000246 <memmove+0x26>

000000008000027c <memcpy>:

// memcpy exists to placate GCC.  Use memmove.
void*
memcpy(void *dst, const void *src, uint n)
{
    8000027c:	1141                	add	sp,sp,-16
    8000027e:	e406                	sd	ra,8(sp)
    80000280:	e022                	sd	s0,0(sp)
    80000282:	0800                	add	s0,sp,16
  return memmove(dst, src, n);
    80000284:	00000097          	auipc	ra,0x0
    80000288:	f9c080e7          	jalr	-100(ra) # 80000220 <memmove>
}
    8000028c:	60a2                	ld	ra,8(sp)
    8000028e:	6402                	ld	s0,0(sp)
    80000290:	0141                	add	sp,sp,16
    80000292:	8082                	ret

0000000080000294 <strncmp>:

int
strncmp(const char *p, const char *q, uint n)
{
    80000294:	1141                	add	sp,sp,-16
    80000296:	e422                	sd	s0,8(sp)
    80000298:	0800                	add	s0,sp,16
  while(n > 0 && *p && *p == *q)
    8000029a:	ce11                	beqz	a2,800002b6 <strncmp+0x22>
    8000029c:	00054783          	lbu	a5,0(a0)
    800002a0:	cf89                	beqz	a5,800002ba <strncmp+0x26>
    800002a2:	0005c703          	lbu	a4,0(a1)
    800002a6:	00f71a63          	bne	a4,a5,800002ba <strncmp+0x26>
    n--, p++, q++;
    800002aa:	367d                	addw	a2,a2,-1
    800002ac:	0505                	add	a0,a0,1
    800002ae:	0585                	add	a1,a1,1
  while(n > 0 && *p && *p == *q)
    800002b0:	f675                	bnez	a2,8000029c <strncmp+0x8>
  if(n == 0)
    return 0;
    800002b2:	4501                	li	a0,0
    800002b4:	a801                	j	800002c4 <strncmp+0x30>
    800002b6:	4501                	li	a0,0
    800002b8:	a031                	j	800002c4 <strncmp+0x30>
  return (uchar)*p - (uchar)*q;
    800002ba:	00054503          	lbu	a0,0(a0)
    800002be:	0005c783          	lbu	a5,0(a1)
    800002c2:	9d1d                	subw	a0,a0,a5
}
    800002c4:	6422                	ld	s0,8(sp)
    800002c6:	0141                	add	sp,sp,16
    800002c8:	8082                	ret

00000000800002ca <strncpy>:

char*
strncpy(char *s, const char *t, int n)
{
    800002ca:	1141                	add	sp,sp,-16
    800002cc:	e422                	sd	s0,8(sp)
    800002ce:	0800                	add	s0,sp,16
  char *os;

  os = s;
  while(n-- > 0 && (*s++ = *t++) != 0)
    800002d0:	87aa                	mv	a5,a0
    800002d2:	86b2                	mv	a3,a2
    800002d4:	367d                	addw	a2,a2,-1
    800002d6:	02d05563          	blez	a3,80000300 <strncpy+0x36>
    800002da:	0785                	add	a5,a5,1
    800002dc:	0005c703          	lbu	a4,0(a1)
    800002e0:	fee78fa3          	sb	a4,-1(a5)
    800002e4:	0585                	add	a1,a1,1
    800002e6:	f775                	bnez	a4,800002d2 <strncpy+0x8>
    ;
  while(n-- > 0)
    800002e8:	873e                	mv	a4,a5
    800002ea:	9fb5                	addw	a5,a5,a3
    800002ec:	37fd                	addw	a5,a5,-1
    800002ee:	00c05963          	blez	a2,80000300 <strncpy+0x36>
    *s++ = 0;
    800002f2:	0705                	add	a4,a4,1
    800002f4:	fe070fa3          	sb	zero,-1(a4)
  while(n-- > 0)
    800002f8:	40e786bb          	subw	a3,a5,a4
    800002fc:	fed04be3          	bgtz	a3,800002f2 <strncpy+0x28>
  return os;
}
    80000300:	6422                	ld	s0,8(sp)
    80000302:	0141                	add	sp,sp,16
    80000304:	8082                	ret

0000000080000306 <safestrcpy>:

// Like strncpy but guaranteed to NUL-terminate.
char*
safestrcpy(char *s, const char *t, int n)
{
    80000306:	1141                	add	sp,sp,-16
    80000308:	e422                	sd	s0,8(sp)
    8000030a:	0800                	add	s0,sp,16
  char *os;

  os = s;
  if(n <= 0)
    8000030c:	02c05363          	blez	a2,80000332 <safestrcpy+0x2c>
    80000310:	fff6069b          	addw	a3,a2,-1
    80000314:	1682                	sll	a3,a3,0x20
    80000316:	9281                	srl	a3,a3,0x20
    80000318:	96ae                	add	a3,a3,a1
    8000031a:	87aa                	mv	a5,a0
    return os;
  while(--n > 0 && (*s++ = *t++) != 0)
    8000031c:	00d58963          	beq	a1,a3,8000032e <safestrcpy+0x28>
    80000320:	0585                	add	a1,a1,1
    80000322:	0785                	add	a5,a5,1
    80000324:	fff5c703          	lbu	a4,-1(a1)
    80000328:	fee78fa3          	sb	a4,-1(a5)
    8000032c:	fb65                	bnez	a4,8000031c <safestrcpy+0x16>
    ;
  *s = 0;
    8000032e:	00078023          	sb	zero,0(a5)
  return os;
}
    80000332:	6422                	ld	s0,8(sp)
    80000334:	0141                	add	sp,sp,16
    80000336:	8082                	ret

0000000080000338 <strlen>:

int
strlen(const char *s)
{
    80000338:	1141                	add	sp,sp,-16
    8000033a:	e422                	sd	s0,8(sp)
    8000033c:	0800                	add	s0,sp,16
  int n;

  for(n = 0; s[n]; n++)
    8000033e:	00054783          	lbu	a5,0(a0)
    80000342:	cf91                	beqz	a5,8000035e <strlen+0x26>
    80000344:	0505                	add	a0,a0,1
    80000346:	87aa                	mv	a5,a0
    80000348:	86be                	mv	a3,a5
    8000034a:	0785                	add	a5,a5,1
    8000034c:	fff7c703          	lbu	a4,-1(a5)
    80000350:	ff65                	bnez	a4,80000348 <strlen+0x10>
    80000352:	40a6853b          	subw	a0,a3,a0
    80000356:	2505                	addw	a0,a0,1
    ;
  return n;
}
    80000358:	6422                	ld	s0,8(sp)
    8000035a:	0141                	add	sp,sp,16
    8000035c:	8082                	ret
  for(n = 0; s[n]; n++)
    8000035e:	4501                	li	a0,0
    80000360:	bfe5                	j	80000358 <strlen+0x20>

0000000080000362 <main>:
volatile static int started = 0;

// start() jumps here in supervisor mode on all CPUs.
void
main()
{
    80000362:	1141                	add	sp,sp,-16
    80000364:	e406                	sd	ra,8(sp)
    80000366:	e022                	sd	s0,0(sp)
    80000368:	0800                	add	s0,sp,16
  if(cpuid() == 0){
    8000036a:	00001097          	auipc	ra,0x1
    8000036e:	bba080e7          	jalr	-1094(ra) # 80000f24 <cpuid>
    virtio_disk_init(); // emulated hard disk
    userinit();      // first user process
    __sync_synchronize();
    started = 1;
  } else {
    while(started == 0)
    80000372:	0000b717          	auipc	a4,0xb
    80000376:	07e70713          	add	a4,a4,126 # 8000b3f0 <started>
  if(cpuid() == 0){
    8000037a:	c139                	beqz	a0,800003c0 <main+0x5e>
    while(started == 0)
    8000037c:	431c                	lw	a5,0(a4)
    8000037e:	2781                	sext.w	a5,a5
    80000380:	dff5                	beqz	a5,8000037c <main+0x1a>
      ;
    __sync_synchronize();
    80000382:	0330000f          	fence	rw,rw
    printf("hart %d starting\n", cpuid());
    80000386:	00001097          	auipc	ra,0x1
    8000038a:	b9e080e7          	jalr	-1122(ra) # 80000f24 <cpuid>
    8000038e:	85aa                	mv	a1,a0
    80000390:	00008517          	auipc	a0,0x8
    80000394:	ca850513          	add	a0,a0,-856 # 80008038 <etext+0x38>
    80000398:	00006097          	auipc	ra,0x6
    8000039c:	ca4080e7          	jalr	-860(ra) # 8000603c <printf>
    kvminithart();    // turn on paging
    800003a0:	00000097          	auipc	ra,0x0
    800003a4:	0d8080e7          	jalr	216(ra) # 80000478 <kvminithart>
    trapinithart();   // install kernel trap vector
    800003a8:	00002097          	auipc	ra,0x2
    800003ac:	882080e7          	jalr	-1918(ra) # 80001c2a <trapinithart>
    plicinithart();   // ask PLIC for device interrupts
    800003b0:	00005097          	auipc	ra,0x5
    800003b4:	0e4080e7          	jalr	228(ra) # 80005494 <plicinithart>
  }

  scheduler();        
    800003b8:	00001097          	auipc	ra,0x1
    800003bc:	09c080e7          	jalr	156(ra) # 80001454 <scheduler>
    consoleinit();
    800003c0:	00006097          	auipc	ra,0x6
    800003c4:	b42080e7          	jalr	-1214(ra) # 80005f02 <consoleinit>
    printfinit();
    800003c8:	00006097          	auipc	ra,0x6
    800003cc:	e7c080e7          	jalr	-388(ra) # 80006244 <printfinit>
    printf("\n");
    800003d0:	00008517          	auipc	a0,0x8
    800003d4:	c4850513          	add	a0,a0,-952 # 80008018 <etext+0x18>
    800003d8:	00006097          	auipc	ra,0x6
    800003dc:	c64080e7          	jalr	-924(ra) # 8000603c <printf>
    printf("xv6 kernel is booting\n");
    800003e0:	00008517          	auipc	a0,0x8
    800003e4:	c4050513          	add	a0,a0,-960 # 80008020 <etext+0x20>
    800003e8:	00006097          	auipc	ra,0x6
    800003ec:	c54080e7          	jalr	-940(ra) # 8000603c <printf>
    printf("\n");
    800003f0:	00008517          	auipc	a0,0x8
    800003f4:	c2850513          	add	a0,a0,-984 # 80008018 <etext+0x18>
    800003f8:	00006097          	auipc	ra,0x6
    800003fc:	c44080e7          	jalr	-956(ra) # 8000603c <printf>
    kinit();         // physical page allocator
    80000400:	00000097          	auipc	ra,0x0
    80000404:	cde080e7          	jalr	-802(ra) # 800000de <kinit>
    kvminit();       // create kernel page table
    80000408:	00000097          	auipc	ra,0x0
    8000040c:	34a080e7          	jalr	842(ra) # 80000752 <kvminit>
    kvminithart();   // turn on paging
    80000410:	00000097          	auipc	ra,0x0
    80000414:	068080e7          	jalr	104(ra) # 80000478 <kvminithart>
    procinit();      // process table
    80000418:	00001097          	auipc	ra,0x1
    8000041c:	a4a080e7          	jalr	-1462(ra) # 80000e62 <procinit>
    trapinit();      // trap vectors
    80000420:	00001097          	auipc	ra,0x1
    80000424:	7e2080e7          	jalr	2018(ra) # 80001c02 <trapinit>
    trapinithart();  // install kernel trap vector
    80000428:	00002097          	auipc	ra,0x2
    8000042c:	802080e7          	jalr	-2046(ra) # 80001c2a <trapinithart>
    plicinit();      // set up interrupt controller
    80000430:	00005097          	auipc	ra,0x5
    80000434:	04a080e7          	jalr	74(ra) # 8000547a <plicinit>
    plicinithart();  // ask PLIC for device interrupts
    80000438:	00005097          	auipc	ra,0x5
    8000043c:	05c080e7          	jalr	92(ra) # 80005494 <plicinithart>
    binit();         // buffer cache
    80000440:	00002097          	auipc	ra,0x2
    80000444:	120080e7          	jalr	288(ra) # 80002560 <binit>
    iinit();         // inode table
    80000448:	00002097          	auipc	ra,0x2
    8000044c:	7d6080e7          	jalr	2006(ra) # 80002c1e <iinit>
    fileinit();      // file table
    80000450:	00003097          	auipc	ra,0x3
    80000454:	786080e7          	jalr	1926(ra) # 80003bd6 <fileinit>
    virtio_disk_init(); // emulated hard disk
    80000458:	00005097          	auipc	ra,0x5
    8000045c:	144080e7          	jalr	324(ra) # 8000559c <virtio_disk_init>
    userinit();      // first user process
    80000460:	00001097          	auipc	ra,0x1
    80000464:	dcc080e7          	jalr	-564(ra) # 8000122c <userinit>
    __sync_synchronize();
    80000468:	0330000f          	fence	rw,rw
    started = 1;
    8000046c:	4785                	li	a5,1
    8000046e:	0000b717          	auipc	a4,0xb
    80000472:	f8f72123          	sw	a5,-126(a4) # 8000b3f0 <started>
    80000476:	b789                	j	800003b8 <main+0x56>

0000000080000478 <kvminithart>:

// Switch h/w page table register to the kernel's page table,
// and enable paging.
void
kvminithart()
{
    80000478:	1141                	add	sp,sp,-16
    8000047a:	e422                	sd	s0,8(sp)
    8000047c:	0800                	add	s0,sp,16
// flush the TLB.
static inline void
sfence_vma()
{
  // the zero, zero means flush all TLB entries.
  asm volatile("sfence.vma zero, zero");
    8000047e:	12000073          	sfence.vma
  // wait for any previous writes to the page table memory to finish.
  sfence_vma();

  w_satp(MAKE_SATP(kernel_pagetable));
    80000482:	0000b797          	auipc	a5,0xb
    80000486:	f767b783          	ld	a5,-138(a5) # 8000b3f8 <kernel_pagetable>
    8000048a:	83b1                	srl	a5,a5,0xc
    8000048c:	577d                	li	a4,-1
    8000048e:	177e                	sll	a4,a4,0x3f
    80000490:	8fd9                	or	a5,a5,a4
  asm volatile("csrw satp, %0" : : "r" (x));
    80000492:	18079073          	csrw	satp,a5
  asm volatile("sfence.vma zero, zero");
    80000496:	12000073          	sfence.vma

  // flush stale entries from the TLB.
  sfence_vma();
}
    8000049a:	6422                	ld	s0,8(sp)
    8000049c:	0141                	add	sp,sp,16
    8000049e:	8082                	ret

00000000800004a0 <walk>:
//   21..29 -- 9 bits of level-1 index.
//   12..20 -- 9 bits of level-0 index.
//    0..11 -- 12 bits of byte offset within the page.
pte_t *
walk(pagetable_t pagetable, uint64 va, int alloc)
{
    800004a0:	7139                	add	sp,sp,-64
    800004a2:	fc06                	sd	ra,56(sp)
    800004a4:	f822                	sd	s0,48(sp)
    800004a6:	f426                	sd	s1,40(sp)
    800004a8:	f04a                	sd	s2,32(sp)
    800004aa:	ec4e                	sd	s3,24(sp)
    800004ac:	e852                	sd	s4,16(sp)
    800004ae:	e456                	sd	s5,8(sp)
    800004b0:	e05a                	sd	s6,0(sp)
    800004b2:	0080                	add	s0,sp,64
    800004b4:	84aa                	mv	s1,a0
    800004b6:	89ae                	mv	s3,a1
    800004b8:	8ab2                	mv	s5,a2
  if(va >= MAXVA)
    800004ba:	57fd                	li	a5,-1
    800004bc:	83e9                	srl	a5,a5,0x1a
    800004be:	4a79                	li	s4,30
    panic("walk");

  for(int level = 2; level > 0; level--) {
    800004c0:	4b31                	li	s6,12
  if(va >= MAXVA)
    800004c2:	04b7f263          	bgeu	a5,a1,80000506 <walk+0x66>
    panic("walk");
    800004c6:	00008517          	auipc	a0,0x8
    800004ca:	b8a50513          	add	a0,a0,-1142 # 80008050 <etext+0x50>
    800004ce:	00006097          	auipc	ra,0x6
    800004d2:	b24080e7          	jalr	-1244(ra) # 80005ff2 <panic>
    pte_t *pte = &pagetable[PX(level, va)];
    if(*pte & PTE_V) {
      pagetable = (pagetable_t)PTE2PA(*pte);
    } else {
      if(!alloc || (pagetable = (pde_t*)kalloc()) == 0)
    800004d6:	060a8663          	beqz	s5,80000542 <walk+0xa2>
    800004da:	00000097          	auipc	ra,0x0
    800004de:	c40080e7          	jalr	-960(ra) # 8000011a <kalloc>
    800004e2:	84aa                	mv	s1,a0
    800004e4:	c529                	beqz	a0,8000052e <walk+0x8e>
        return 0;
      memset(pagetable, 0, PGSIZE);
    800004e6:	6605                	lui	a2,0x1
    800004e8:	4581                	li	a1,0
    800004ea:	00000097          	auipc	ra,0x0
    800004ee:	cda080e7          	jalr	-806(ra) # 800001c4 <memset>
      *pte = PA2PTE(pagetable) | PTE_V;
    800004f2:	00c4d793          	srl	a5,s1,0xc
    800004f6:	07aa                	sll	a5,a5,0xa
    800004f8:	0017e793          	or	a5,a5,1
    800004fc:	00f93023          	sd	a5,0(s2)
  for(int level = 2; level > 0; level--) {
    80000500:	3a5d                	addw	s4,s4,-9 # ffffffffffffeff7 <end+0xffffffff7ffda767>
    80000502:	036a0063          	beq	s4,s6,80000522 <walk+0x82>
    pte_t *pte = &pagetable[PX(level, va)];
    80000506:	0149d933          	srl	s2,s3,s4
    8000050a:	1ff97913          	and	s2,s2,511
    8000050e:	090e                	sll	s2,s2,0x3
    80000510:	9926                	add	s2,s2,s1
    if(*pte & PTE_V) {
    80000512:	00093483          	ld	s1,0(s2)
    80000516:	0014f793          	and	a5,s1,1
    8000051a:	dfd5                	beqz	a5,800004d6 <walk+0x36>
      pagetable = (pagetable_t)PTE2PA(*pte);
    8000051c:	80a9                	srl	s1,s1,0xa
    8000051e:	04b2                	sll	s1,s1,0xc
    80000520:	b7c5                	j	80000500 <walk+0x60>
    }
  }
  return &pagetable[PX(0, va)];
    80000522:	00c9d513          	srl	a0,s3,0xc
    80000526:	1ff57513          	and	a0,a0,511
    8000052a:	050e                	sll	a0,a0,0x3
    8000052c:	9526                	add	a0,a0,s1
}
    8000052e:	70e2                	ld	ra,56(sp)
    80000530:	7442                	ld	s0,48(sp)
    80000532:	74a2                	ld	s1,40(sp)
    80000534:	7902                	ld	s2,32(sp)
    80000536:	69e2                	ld	s3,24(sp)
    80000538:	6a42                	ld	s4,16(sp)
    8000053a:	6aa2                	ld	s5,8(sp)
    8000053c:	6b02                	ld	s6,0(sp)
    8000053e:	6121                	add	sp,sp,64
    80000540:	8082                	ret
        return 0;
    80000542:	4501                	li	a0,0
    80000544:	b7ed                	j	8000052e <walk+0x8e>

0000000080000546 <walkaddr>:
walkaddr(pagetable_t pagetable, uint64 va)
{
  pte_t *pte;
  uint64 pa;

  if(va >= MAXVA)
    80000546:	57fd                	li	a5,-1
    80000548:	83e9                	srl	a5,a5,0x1a
    8000054a:	00b7f463          	bgeu	a5,a1,80000552 <walkaddr+0xc>
    return 0;
    8000054e:	4501                	li	a0,0
    return 0;
  if((*pte & PTE_U) == 0)
    return 0;
  pa = PTE2PA(*pte);
  return pa;
}
    80000550:	8082                	ret
{
    80000552:	1141                	add	sp,sp,-16
    80000554:	e406                	sd	ra,8(sp)
    80000556:	e022                	sd	s0,0(sp)
    80000558:	0800                	add	s0,sp,16
  pte = walk(pagetable, va, 0);
    8000055a:	4601                	li	a2,0
    8000055c:	00000097          	auipc	ra,0x0
    80000560:	f44080e7          	jalr	-188(ra) # 800004a0 <walk>
  if(pte == 0)
    80000564:	c105                	beqz	a0,80000584 <walkaddr+0x3e>
  if((*pte & PTE_V) == 0)
    80000566:	611c                	ld	a5,0(a0)
  if((*pte & PTE_U) == 0)
    80000568:	0117f693          	and	a3,a5,17
    8000056c:	4745                	li	a4,17
    return 0;
    8000056e:	4501                	li	a0,0
  if((*pte & PTE_U) == 0)
    80000570:	00e68663          	beq	a3,a4,8000057c <walkaddr+0x36>
}
    80000574:	60a2                	ld	ra,8(sp)
    80000576:	6402                	ld	s0,0(sp)
    80000578:	0141                	add	sp,sp,16
    8000057a:	8082                	ret
  pa = PTE2PA(*pte);
    8000057c:	83a9                	srl	a5,a5,0xa
    8000057e:	00c79513          	sll	a0,a5,0xc
  return pa;
    80000582:	bfcd                	j	80000574 <walkaddr+0x2e>
    return 0;
    80000584:	4501                	li	a0,0
    80000586:	b7fd                	j	80000574 <walkaddr+0x2e>

0000000080000588 <mappages>:
// va and size MUST be page-aligned.
// Returns 0 on success, -1 if walk() couldn't
// allocate a needed page-table page.
int
mappages(pagetable_t pagetable, uint64 va, uint64 size, uint64 pa, int perm)
{
    80000588:	715d                	add	sp,sp,-80
    8000058a:	e486                	sd	ra,72(sp)
    8000058c:	e0a2                	sd	s0,64(sp)
    8000058e:	fc26                	sd	s1,56(sp)
    80000590:	f84a                	sd	s2,48(sp)
    80000592:	f44e                	sd	s3,40(sp)
    80000594:	f052                	sd	s4,32(sp)
    80000596:	ec56                	sd	s5,24(sp)
    80000598:	e85a                	sd	s6,16(sp)
    8000059a:	e45e                	sd	s7,8(sp)
    8000059c:	0880                	add	s0,sp,80
  uint64 a, last;
  pte_t *pte;

  if((va % PGSIZE) != 0)
    8000059e:	03459793          	sll	a5,a1,0x34
    800005a2:	e7b9                	bnez	a5,800005f0 <mappages+0x68>
    800005a4:	8aaa                	mv	s5,a0
    800005a6:	8b3a                	mv	s6,a4
    panic("mappages: va not aligned");

  if((size % PGSIZE) != 0)
    800005a8:	03461793          	sll	a5,a2,0x34
    800005ac:	ebb1                	bnez	a5,80000600 <mappages+0x78>
    panic("mappages: size not aligned");

  if(size == 0)
    800005ae:	c22d                	beqz	a2,80000610 <mappages+0x88>
    panic("mappages: size");
  
  a = va;
  last = va + size - PGSIZE;
    800005b0:	77fd                	lui	a5,0xfffff
    800005b2:	963e                	add	a2,a2,a5
    800005b4:	00b609b3          	add	s3,a2,a1
  a = va;
    800005b8:	892e                	mv	s2,a1
    800005ba:	40b68a33          	sub	s4,a3,a1
    if(*pte & PTE_V)
      panic("mappages: remap");
    *pte = PA2PTE(pa) | perm | PTE_V;
    if(a == last)
      break;
    a += PGSIZE;
    800005be:	6b85                	lui	s7,0x1
    800005c0:	014904b3          	add	s1,s2,s4
    if((pte = walk(pagetable, a, 1)) == 0)
    800005c4:	4605                	li	a2,1
    800005c6:	85ca                	mv	a1,s2
    800005c8:	8556                	mv	a0,s5
    800005ca:	00000097          	auipc	ra,0x0
    800005ce:	ed6080e7          	jalr	-298(ra) # 800004a0 <walk>
    800005d2:	cd39                	beqz	a0,80000630 <mappages+0xa8>
    if(*pte & PTE_V)
    800005d4:	611c                	ld	a5,0(a0)
    800005d6:	8b85                	and	a5,a5,1
    800005d8:	e7a1                	bnez	a5,80000620 <mappages+0x98>
    *pte = PA2PTE(pa) | perm | PTE_V;
    800005da:	80b1                	srl	s1,s1,0xc
    800005dc:	04aa                	sll	s1,s1,0xa
    800005de:	0164e4b3          	or	s1,s1,s6
    800005e2:	0014e493          	or	s1,s1,1
    800005e6:	e104                	sd	s1,0(a0)
    if(a == last)
    800005e8:	07390063          	beq	s2,s3,80000648 <mappages+0xc0>
    a += PGSIZE;
    800005ec:	995e                	add	s2,s2,s7
    if((pte = walk(pagetable, a, 1)) == 0)
    800005ee:	bfc9                	j	800005c0 <mappages+0x38>
    panic("mappages: va not aligned");
    800005f0:	00008517          	auipc	a0,0x8
    800005f4:	a6850513          	add	a0,a0,-1432 # 80008058 <etext+0x58>
    800005f8:	00006097          	auipc	ra,0x6
    800005fc:	9fa080e7          	jalr	-1542(ra) # 80005ff2 <panic>
    panic("mappages: size not aligned");
    80000600:	00008517          	auipc	a0,0x8
    80000604:	a7850513          	add	a0,a0,-1416 # 80008078 <etext+0x78>
    80000608:	00006097          	auipc	ra,0x6
    8000060c:	9ea080e7          	jalr	-1558(ra) # 80005ff2 <panic>
    panic("mappages: size");
    80000610:	00008517          	auipc	a0,0x8
    80000614:	a8850513          	add	a0,a0,-1400 # 80008098 <etext+0x98>
    80000618:	00006097          	auipc	ra,0x6
    8000061c:	9da080e7          	jalr	-1574(ra) # 80005ff2 <panic>
      panic("mappages: remap");
    80000620:	00008517          	auipc	a0,0x8
    80000624:	a8850513          	add	a0,a0,-1400 # 800080a8 <etext+0xa8>
    80000628:	00006097          	auipc	ra,0x6
    8000062c:	9ca080e7          	jalr	-1590(ra) # 80005ff2 <panic>
      return -1;
    80000630:	557d                	li	a0,-1
    pa += PGSIZE;
  }
  return 0;
}
    80000632:	60a6                	ld	ra,72(sp)
    80000634:	6406                	ld	s0,64(sp)
    80000636:	74e2                	ld	s1,56(sp)
    80000638:	7942                	ld	s2,48(sp)
    8000063a:	79a2                	ld	s3,40(sp)
    8000063c:	7a02                	ld	s4,32(sp)
    8000063e:	6ae2                	ld	s5,24(sp)
    80000640:	6b42                	ld	s6,16(sp)
    80000642:	6ba2                	ld	s7,8(sp)
    80000644:	6161                	add	sp,sp,80
    80000646:	8082                	ret
  return 0;
    80000648:	4501                	li	a0,0
    8000064a:	b7e5                	j	80000632 <mappages+0xaa>

000000008000064c <kvmmap>:
{
    8000064c:	1141                	add	sp,sp,-16
    8000064e:	e406                	sd	ra,8(sp)
    80000650:	e022                	sd	s0,0(sp)
    80000652:	0800                	add	s0,sp,16
    80000654:	87b6                	mv	a5,a3
  if(mappages(kpgtbl, va, sz, pa, perm) != 0)
    80000656:	86b2                	mv	a3,a2
    80000658:	863e                	mv	a2,a5
    8000065a:	00000097          	auipc	ra,0x0
    8000065e:	f2e080e7          	jalr	-210(ra) # 80000588 <mappages>
    80000662:	e509                	bnez	a0,8000066c <kvmmap+0x20>
}
    80000664:	60a2                	ld	ra,8(sp)
    80000666:	6402                	ld	s0,0(sp)
    80000668:	0141                	add	sp,sp,16
    8000066a:	8082                	ret
    panic("kvmmap");
    8000066c:	00008517          	auipc	a0,0x8
    80000670:	a4c50513          	add	a0,a0,-1460 # 800080b8 <etext+0xb8>
    80000674:	00006097          	auipc	ra,0x6
    80000678:	97e080e7          	jalr	-1666(ra) # 80005ff2 <panic>

000000008000067c <kvmmake>:
{
    8000067c:	1101                	add	sp,sp,-32
    8000067e:	ec06                	sd	ra,24(sp)
    80000680:	e822                	sd	s0,16(sp)
    80000682:	e426                	sd	s1,8(sp)
    80000684:	e04a                	sd	s2,0(sp)
    80000686:	1000                	add	s0,sp,32
  kpgtbl = (pagetable_t) kalloc();
    80000688:	00000097          	auipc	ra,0x0
    8000068c:	a92080e7          	jalr	-1390(ra) # 8000011a <kalloc>
    80000690:	84aa                	mv	s1,a0
  memset(kpgtbl, 0, PGSIZE);
    80000692:	6605                	lui	a2,0x1
    80000694:	4581                	li	a1,0
    80000696:	00000097          	auipc	ra,0x0
    8000069a:	b2e080e7          	jalr	-1234(ra) # 800001c4 <memset>
  kvmmap(kpgtbl, UART0, UART0, PGSIZE, PTE_R | PTE_W);
    8000069e:	4719                	li	a4,6
    800006a0:	6685                	lui	a3,0x1
    800006a2:	10000637          	lui	a2,0x10000
    800006a6:	100005b7          	lui	a1,0x10000
    800006aa:	8526                	mv	a0,s1
    800006ac:	00000097          	auipc	ra,0x0
    800006b0:	fa0080e7          	jalr	-96(ra) # 8000064c <kvmmap>
  kvmmap(kpgtbl, VIRTIO0, VIRTIO0, PGSIZE, PTE_R | PTE_W);
    800006b4:	4719                	li	a4,6
    800006b6:	6685                	lui	a3,0x1
    800006b8:	10001637          	lui	a2,0x10001
    800006bc:	100015b7          	lui	a1,0x10001
    800006c0:	8526                	mv	a0,s1
    800006c2:	00000097          	auipc	ra,0x0
    800006c6:	f8a080e7          	jalr	-118(ra) # 8000064c <kvmmap>
  kvmmap(kpgtbl, PLIC, PLIC, 0x400000, PTE_R | PTE_W);
    800006ca:	4719                	li	a4,6
    800006cc:	004006b7          	lui	a3,0x400
    800006d0:	0c000637          	lui	a2,0xc000
    800006d4:	0c0005b7          	lui	a1,0xc000
    800006d8:	8526                	mv	a0,s1
    800006da:	00000097          	auipc	ra,0x0
    800006de:	f72080e7          	jalr	-142(ra) # 8000064c <kvmmap>
  kvmmap(kpgtbl, KERNBASE, KERNBASE, (uint64)etext-KERNBASE, PTE_R | PTE_X);
    800006e2:	00008917          	auipc	s2,0x8
    800006e6:	91e90913          	add	s2,s2,-1762 # 80008000 <etext>
    800006ea:	4729                	li	a4,10
    800006ec:	80008697          	auipc	a3,0x80008
    800006f0:	91468693          	add	a3,a3,-1772 # 8000 <_entry-0x7fff8000>
    800006f4:	4605                	li	a2,1
    800006f6:	067e                	sll	a2,a2,0x1f
    800006f8:	85b2                	mv	a1,a2
    800006fa:	8526                	mv	a0,s1
    800006fc:	00000097          	auipc	ra,0x0
    80000700:	f50080e7          	jalr	-176(ra) # 8000064c <kvmmap>
  kvmmap(kpgtbl, (uint64)etext, (uint64)etext, PHYSTOP-(uint64)etext, PTE_R | PTE_W);
    80000704:	46c5                	li	a3,17
    80000706:	06ee                	sll	a3,a3,0x1b
    80000708:	4719                	li	a4,6
    8000070a:	412686b3          	sub	a3,a3,s2
    8000070e:	864a                	mv	a2,s2
    80000710:	85ca                	mv	a1,s2
    80000712:	8526                	mv	a0,s1
    80000714:	00000097          	auipc	ra,0x0
    80000718:	f38080e7          	jalr	-200(ra) # 8000064c <kvmmap>
  kvmmap(kpgtbl, TRAMPOLINE, (uint64)trampoline, PGSIZE, PTE_R | PTE_X);
    8000071c:	4729                	li	a4,10
    8000071e:	6685                	lui	a3,0x1
    80000720:	00007617          	auipc	a2,0x7
    80000724:	8e060613          	add	a2,a2,-1824 # 80007000 <_trampoline>
    80000728:	040005b7          	lui	a1,0x4000
    8000072c:	15fd                	add	a1,a1,-1 # 3ffffff <_entry-0x7c000001>
    8000072e:	05b2                	sll	a1,a1,0xc
    80000730:	8526                	mv	a0,s1
    80000732:	00000097          	auipc	ra,0x0
    80000736:	f1a080e7          	jalr	-230(ra) # 8000064c <kvmmap>
  proc_mapstacks(kpgtbl);
    8000073a:	8526                	mv	a0,s1
    8000073c:	00000097          	auipc	ra,0x0
    80000740:	682080e7          	jalr	1666(ra) # 80000dbe <proc_mapstacks>
}
    80000744:	8526                	mv	a0,s1
    80000746:	60e2                	ld	ra,24(sp)
    80000748:	6442                	ld	s0,16(sp)
    8000074a:	64a2                	ld	s1,8(sp)
    8000074c:	6902                	ld	s2,0(sp)
    8000074e:	6105                	add	sp,sp,32
    80000750:	8082                	ret

0000000080000752 <kvminit>:
{
    80000752:	1141                	add	sp,sp,-16
    80000754:	e406                	sd	ra,8(sp)
    80000756:	e022                	sd	s0,0(sp)
    80000758:	0800                	add	s0,sp,16
  kernel_pagetable = kvmmake();
    8000075a:	00000097          	auipc	ra,0x0
    8000075e:	f22080e7          	jalr	-222(ra) # 8000067c <kvmmake>
    80000762:	0000b797          	auipc	a5,0xb
    80000766:	c8a7bb23          	sd	a0,-874(a5) # 8000b3f8 <kernel_pagetable>
}
    8000076a:	60a2                	ld	ra,8(sp)
    8000076c:	6402                	ld	s0,0(sp)
    8000076e:	0141                	add	sp,sp,16
    80000770:	8082                	ret

0000000080000772 <uvmunmap>:
// Remove npages of mappings starting from va. va must be
// page-aligned. The mappings must exist.
// Optionally free the physical memory.
void
uvmunmap(pagetable_t pagetable, uint64 va, uint64 npages, int do_free)
{
    80000772:	715d                	add	sp,sp,-80
    80000774:	e486                	sd	ra,72(sp)
    80000776:	e0a2                	sd	s0,64(sp)
    80000778:	0880                	add	s0,sp,80
  uint64 a;
  pte_t *pte;

  if((va % PGSIZE) != 0)
    8000077a:	03459793          	sll	a5,a1,0x34
    8000077e:	e39d                	bnez	a5,800007a4 <uvmunmap+0x32>
    80000780:	f84a                	sd	s2,48(sp)
    80000782:	f44e                	sd	s3,40(sp)
    80000784:	f052                	sd	s4,32(sp)
    80000786:	ec56                	sd	s5,24(sp)
    80000788:	e85a                	sd	s6,16(sp)
    8000078a:	e45e                	sd	s7,8(sp)
    8000078c:	8a2a                	mv	s4,a0
    8000078e:	892e                	mv	s2,a1
    80000790:	8ab6                	mv	s5,a3
    panic("uvmunmap: not aligned");

  for(a = va; a < va + npages*PGSIZE; a += PGSIZE){
    80000792:	0632                	sll	a2,a2,0xc
    80000794:	00b609b3          	add	s3,a2,a1
    if((pte = walk(pagetable, a, 0)) == 0)
      panic("uvmunmap: walk");
    if((*pte & PTE_V) == 0)
      panic("uvmunmap: not mapped");
    if(PTE_FLAGS(*pte) == PTE_V)
    80000798:	4b85                	li	s7,1
  for(a = va; a < va + npages*PGSIZE; a += PGSIZE){
    8000079a:	6b05                	lui	s6,0x1
    8000079c:	0935fb63          	bgeu	a1,s3,80000832 <uvmunmap+0xc0>
    800007a0:	fc26                	sd	s1,56(sp)
    800007a2:	a8a9                	j	800007fc <uvmunmap+0x8a>
    800007a4:	fc26                	sd	s1,56(sp)
    800007a6:	f84a                	sd	s2,48(sp)
    800007a8:	f44e                	sd	s3,40(sp)
    800007aa:	f052                	sd	s4,32(sp)
    800007ac:	ec56                	sd	s5,24(sp)
    800007ae:	e85a                	sd	s6,16(sp)
    800007b0:	e45e                	sd	s7,8(sp)
    panic("uvmunmap: not aligned");
    800007b2:	00008517          	auipc	a0,0x8
    800007b6:	90e50513          	add	a0,a0,-1778 # 800080c0 <etext+0xc0>
    800007ba:	00006097          	auipc	ra,0x6
    800007be:	838080e7          	jalr	-1992(ra) # 80005ff2 <panic>
      panic("uvmunmap: walk");
    800007c2:	00008517          	auipc	a0,0x8
    800007c6:	91650513          	add	a0,a0,-1770 # 800080d8 <etext+0xd8>
    800007ca:	00006097          	auipc	ra,0x6
    800007ce:	828080e7          	jalr	-2008(ra) # 80005ff2 <panic>
      panic("uvmunmap: not mapped");
    800007d2:	00008517          	auipc	a0,0x8
    800007d6:	91650513          	add	a0,a0,-1770 # 800080e8 <etext+0xe8>
    800007da:	00006097          	auipc	ra,0x6
    800007de:	818080e7          	jalr	-2024(ra) # 80005ff2 <panic>
      panic("uvmunmap: not a leaf");
    800007e2:	00008517          	auipc	a0,0x8
    800007e6:	91e50513          	add	a0,a0,-1762 # 80008100 <etext+0x100>
    800007ea:	00006097          	auipc	ra,0x6
    800007ee:	808080e7          	jalr	-2040(ra) # 80005ff2 <panic>
    if(do_free){
      uint64 pa = PTE2PA(*pte);
      kfree((void*)pa);
    }
    *pte = 0;
    800007f2:	0004b023          	sd	zero,0(s1)
  for(a = va; a < va + npages*PGSIZE; a += PGSIZE){
    800007f6:	995a                	add	s2,s2,s6
    800007f8:	03397c63          	bgeu	s2,s3,80000830 <uvmunmap+0xbe>
    if((pte = walk(pagetable, a, 0)) == 0)
    800007fc:	4601                	li	a2,0
    800007fe:	85ca                	mv	a1,s2
    80000800:	8552                	mv	a0,s4
    80000802:	00000097          	auipc	ra,0x0
    80000806:	c9e080e7          	jalr	-866(ra) # 800004a0 <walk>
    8000080a:	84aa                	mv	s1,a0
    8000080c:	d95d                	beqz	a0,800007c2 <uvmunmap+0x50>
    if((*pte & PTE_V) == 0)
    8000080e:	6108                	ld	a0,0(a0)
    80000810:	00157793          	and	a5,a0,1
    80000814:	dfdd                	beqz	a5,800007d2 <uvmunmap+0x60>
    if(PTE_FLAGS(*pte) == PTE_V)
    80000816:	3ff57793          	and	a5,a0,1023
    8000081a:	fd7784e3          	beq	a5,s7,800007e2 <uvmunmap+0x70>
    if(do_free){
    8000081e:	fc0a8ae3          	beqz	s5,800007f2 <uvmunmap+0x80>
      uint64 pa = PTE2PA(*pte);
    80000822:	8129                	srl	a0,a0,0xa
      kfree((void*)pa);
    80000824:	0532                	sll	a0,a0,0xc
    80000826:	fffff097          	auipc	ra,0xfffff
    8000082a:	7f6080e7          	jalr	2038(ra) # 8000001c <kfree>
    8000082e:	b7d1                	j	800007f2 <uvmunmap+0x80>
    80000830:	74e2                	ld	s1,56(sp)
    80000832:	7942                	ld	s2,48(sp)
    80000834:	79a2                	ld	s3,40(sp)
    80000836:	7a02                	ld	s4,32(sp)
    80000838:	6ae2                	ld	s5,24(sp)
    8000083a:	6b42                	ld	s6,16(sp)
    8000083c:	6ba2                	ld	s7,8(sp)
  }
}
    8000083e:	60a6                	ld	ra,72(sp)
    80000840:	6406                	ld	s0,64(sp)
    80000842:	6161                	add	sp,sp,80
    80000844:	8082                	ret

0000000080000846 <uvmcreate>:

// create an empty user page table.
// returns 0 if out of memory.
pagetable_t
uvmcreate()
{
    80000846:	1101                	add	sp,sp,-32
    80000848:	ec06                	sd	ra,24(sp)
    8000084a:	e822                	sd	s0,16(sp)
    8000084c:	e426                	sd	s1,8(sp)
    8000084e:	1000                	add	s0,sp,32
  pagetable_t pagetable;
  pagetable = (pagetable_t) kalloc();
    80000850:	00000097          	auipc	ra,0x0
    80000854:	8ca080e7          	jalr	-1846(ra) # 8000011a <kalloc>
    80000858:	84aa                	mv	s1,a0
  if(pagetable == 0)
    8000085a:	c519                	beqz	a0,80000868 <uvmcreate+0x22>
    return 0;
  memset(pagetable, 0, PGSIZE);
    8000085c:	6605                	lui	a2,0x1
    8000085e:	4581                	li	a1,0
    80000860:	00000097          	auipc	ra,0x0
    80000864:	964080e7          	jalr	-1692(ra) # 800001c4 <memset>
  return pagetable;
}
    80000868:	8526                	mv	a0,s1
    8000086a:	60e2                	ld	ra,24(sp)
    8000086c:	6442                	ld	s0,16(sp)
    8000086e:	64a2                	ld	s1,8(sp)
    80000870:	6105                	add	sp,sp,32
    80000872:	8082                	ret

0000000080000874 <uvmfirst>:
// Load the user initcode into address 0 of pagetable,
// for the very first process.
// sz must be less than a page.
void
uvmfirst(pagetable_t pagetable, uchar *src, uint sz)
{
    80000874:	7179                	add	sp,sp,-48
    80000876:	f406                	sd	ra,40(sp)
    80000878:	f022                	sd	s0,32(sp)
    8000087a:	ec26                	sd	s1,24(sp)
    8000087c:	e84a                	sd	s2,16(sp)
    8000087e:	e44e                	sd	s3,8(sp)
    80000880:	e052                	sd	s4,0(sp)
    80000882:	1800                	add	s0,sp,48
  char *mem;

  if(sz >= PGSIZE)
    80000884:	6785                	lui	a5,0x1
    80000886:	04f67863          	bgeu	a2,a5,800008d6 <uvmfirst+0x62>
    8000088a:	8a2a                	mv	s4,a0
    8000088c:	89ae                	mv	s3,a1
    8000088e:	84b2                	mv	s1,a2
    panic("uvmfirst: more than a page");
  mem = kalloc();
    80000890:	00000097          	auipc	ra,0x0
    80000894:	88a080e7          	jalr	-1910(ra) # 8000011a <kalloc>
    80000898:	892a                	mv	s2,a0
  memset(mem, 0, PGSIZE);
    8000089a:	6605                	lui	a2,0x1
    8000089c:	4581                	li	a1,0
    8000089e:	00000097          	auipc	ra,0x0
    800008a2:	926080e7          	jalr	-1754(ra) # 800001c4 <memset>
  mappages(pagetable, 0, PGSIZE, (uint64)mem, PTE_W|PTE_R|PTE_X|PTE_U);
    800008a6:	4779                	li	a4,30
    800008a8:	86ca                	mv	a3,s2
    800008aa:	6605                	lui	a2,0x1
    800008ac:	4581                	li	a1,0
    800008ae:	8552                	mv	a0,s4
    800008b0:	00000097          	auipc	ra,0x0
    800008b4:	cd8080e7          	jalr	-808(ra) # 80000588 <mappages>
  memmove(mem, src, sz);
    800008b8:	8626                	mv	a2,s1
    800008ba:	85ce                	mv	a1,s3
    800008bc:	854a                	mv	a0,s2
    800008be:	00000097          	auipc	ra,0x0
    800008c2:	962080e7          	jalr	-1694(ra) # 80000220 <memmove>
}
    800008c6:	70a2                	ld	ra,40(sp)
    800008c8:	7402                	ld	s0,32(sp)
    800008ca:	64e2                	ld	s1,24(sp)
    800008cc:	6942                	ld	s2,16(sp)
    800008ce:	69a2                	ld	s3,8(sp)
    800008d0:	6a02                	ld	s4,0(sp)
    800008d2:	6145                	add	sp,sp,48
    800008d4:	8082                	ret
    panic("uvmfirst: more than a page");
    800008d6:	00008517          	auipc	a0,0x8
    800008da:	84250513          	add	a0,a0,-1982 # 80008118 <etext+0x118>
    800008de:	00005097          	auipc	ra,0x5
    800008e2:	714080e7          	jalr	1812(ra) # 80005ff2 <panic>

00000000800008e6 <uvmdealloc>:
// newsz.  oldsz and newsz need not be page-aligned, nor does newsz
// need to be less than oldsz.  oldsz can be larger than the actual
// process size.  Returns the new process size.
uint64
uvmdealloc(pagetable_t pagetable, uint64 oldsz, uint64 newsz)
{
    800008e6:	1101                	add	sp,sp,-32
    800008e8:	ec06                	sd	ra,24(sp)
    800008ea:	e822                	sd	s0,16(sp)
    800008ec:	e426                	sd	s1,8(sp)
    800008ee:	1000                	add	s0,sp,32
  if(newsz >= oldsz)
    return oldsz;
    800008f0:	84ae                	mv	s1,a1
  if(newsz >= oldsz)
    800008f2:	00b67d63          	bgeu	a2,a1,8000090c <uvmdealloc+0x26>
    800008f6:	84b2                	mv	s1,a2

  if(PGROUNDUP(newsz) < PGROUNDUP(oldsz)){
    800008f8:	6785                	lui	a5,0x1
    800008fa:	17fd                	add	a5,a5,-1 # fff <_entry-0x7ffff001>
    800008fc:	00f60733          	add	a4,a2,a5
    80000900:	76fd                	lui	a3,0xfffff
    80000902:	8f75                	and	a4,a4,a3
    80000904:	97ae                	add	a5,a5,a1
    80000906:	8ff5                	and	a5,a5,a3
    80000908:	00f76863          	bltu	a4,a5,80000918 <uvmdealloc+0x32>
    int npages = (PGROUNDUP(oldsz) - PGROUNDUP(newsz)) / PGSIZE;
    uvmunmap(pagetable, PGROUNDUP(newsz), npages, 1);
  }

  return newsz;
}
    8000090c:	8526                	mv	a0,s1
    8000090e:	60e2                	ld	ra,24(sp)
    80000910:	6442                	ld	s0,16(sp)
    80000912:	64a2                	ld	s1,8(sp)
    80000914:	6105                	add	sp,sp,32
    80000916:	8082                	ret
    int npages = (PGROUNDUP(oldsz) - PGROUNDUP(newsz)) / PGSIZE;
    80000918:	8f99                	sub	a5,a5,a4
    8000091a:	83b1                	srl	a5,a5,0xc
    uvmunmap(pagetable, PGROUNDUP(newsz), npages, 1);
    8000091c:	4685                	li	a3,1
    8000091e:	0007861b          	sext.w	a2,a5
    80000922:	85ba                	mv	a1,a4
    80000924:	00000097          	auipc	ra,0x0
    80000928:	e4e080e7          	jalr	-434(ra) # 80000772 <uvmunmap>
    8000092c:	b7c5                	j	8000090c <uvmdealloc+0x26>

000000008000092e <uvmalloc>:
  if(newsz < oldsz)
    8000092e:	0ab66b63          	bltu	a2,a1,800009e4 <uvmalloc+0xb6>
{
    80000932:	7139                	add	sp,sp,-64
    80000934:	fc06                	sd	ra,56(sp)
    80000936:	f822                	sd	s0,48(sp)
    80000938:	ec4e                	sd	s3,24(sp)
    8000093a:	e852                	sd	s4,16(sp)
    8000093c:	e456                	sd	s5,8(sp)
    8000093e:	0080                	add	s0,sp,64
    80000940:	8aaa                	mv	s5,a0
    80000942:	8a32                	mv	s4,a2
  oldsz = PGROUNDUP(oldsz);
    80000944:	6785                	lui	a5,0x1
    80000946:	17fd                	add	a5,a5,-1 # fff <_entry-0x7ffff001>
    80000948:	95be                	add	a1,a1,a5
    8000094a:	77fd                	lui	a5,0xfffff
    8000094c:	00f5f9b3          	and	s3,a1,a5
  for(a = oldsz; a < newsz; a += PGSIZE){
    80000950:	08c9fc63          	bgeu	s3,a2,800009e8 <uvmalloc+0xba>
    80000954:	f426                	sd	s1,40(sp)
    80000956:	f04a                	sd	s2,32(sp)
    80000958:	e05a                	sd	s6,0(sp)
    8000095a:	894e                	mv	s2,s3
    if(mappages(pagetable, a, PGSIZE, (uint64)mem, PTE_R|PTE_U|xperm) != 0){
    8000095c:	0126eb13          	or	s6,a3,18
    mem = kalloc();
    80000960:	fffff097          	auipc	ra,0xfffff
    80000964:	7ba080e7          	jalr	1978(ra) # 8000011a <kalloc>
    80000968:	84aa                	mv	s1,a0
    if(mem == 0){
    8000096a:	c915                	beqz	a0,8000099e <uvmalloc+0x70>
    memset(mem, 0, PGSIZE);
    8000096c:	6605                	lui	a2,0x1
    8000096e:	4581                	li	a1,0
    80000970:	00000097          	auipc	ra,0x0
    80000974:	854080e7          	jalr	-1964(ra) # 800001c4 <memset>
    if(mappages(pagetable, a, PGSIZE, (uint64)mem, PTE_R|PTE_U|xperm) != 0){
    80000978:	875a                	mv	a4,s6
    8000097a:	86a6                	mv	a3,s1
    8000097c:	6605                	lui	a2,0x1
    8000097e:	85ca                	mv	a1,s2
    80000980:	8556                	mv	a0,s5
    80000982:	00000097          	auipc	ra,0x0
    80000986:	c06080e7          	jalr	-1018(ra) # 80000588 <mappages>
    8000098a:	ed05                	bnez	a0,800009c2 <uvmalloc+0x94>
  for(a = oldsz; a < newsz; a += PGSIZE){
    8000098c:	6785                	lui	a5,0x1
    8000098e:	993e                	add	s2,s2,a5
    80000990:	fd4968e3          	bltu	s2,s4,80000960 <uvmalloc+0x32>
  return newsz;
    80000994:	8552                	mv	a0,s4
    80000996:	74a2                	ld	s1,40(sp)
    80000998:	7902                	ld	s2,32(sp)
    8000099a:	6b02                	ld	s6,0(sp)
    8000099c:	a821                	j	800009b4 <uvmalloc+0x86>
      uvmdealloc(pagetable, a, oldsz);
    8000099e:	864e                	mv	a2,s3
    800009a0:	85ca                	mv	a1,s2
    800009a2:	8556                	mv	a0,s5
    800009a4:	00000097          	auipc	ra,0x0
    800009a8:	f42080e7          	jalr	-190(ra) # 800008e6 <uvmdealloc>
      return 0;
    800009ac:	4501                	li	a0,0
    800009ae:	74a2                	ld	s1,40(sp)
    800009b0:	7902                	ld	s2,32(sp)
    800009b2:	6b02                	ld	s6,0(sp)
}
    800009b4:	70e2                	ld	ra,56(sp)
    800009b6:	7442                	ld	s0,48(sp)
    800009b8:	69e2                	ld	s3,24(sp)
    800009ba:	6a42                	ld	s4,16(sp)
    800009bc:	6aa2                	ld	s5,8(sp)
    800009be:	6121                	add	sp,sp,64
    800009c0:	8082                	ret
      kfree(mem);
    800009c2:	8526                	mv	a0,s1
    800009c4:	fffff097          	auipc	ra,0xfffff
    800009c8:	658080e7          	jalr	1624(ra) # 8000001c <kfree>
      uvmdealloc(pagetable, a, oldsz);
    800009cc:	864e                	mv	a2,s3
    800009ce:	85ca                	mv	a1,s2
    800009d0:	8556                	mv	a0,s5
    800009d2:	00000097          	auipc	ra,0x0
    800009d6:	f14080e7          	jalr	-236(ra) # 800008e6 <uvmdealloc>
      return 0;
    800009da:	4501                	li	a0,0
    800009dc:	74a2                	ld	s1,40(sp)
    800009de:	7902                	ld	s2,32(sp)
    800009e0:	6b02                	ld	s6,0(sp)
    800009e2:	bfc9                	j	800009b4 <uvmalloc+0x86>
    return oldsz;
    800009e4:	852e                	mv	a0,a1
}
    800009e6:	8082                	ret
  return newsz;
    800009e8:	8532                	mv	a0,a2
    800009ea:	b7e9                	j	800009b4 <uvmalloc+0x86>

00000000800009ec <freewalk>:

// Recursively free page-table pages.
// All leaf mappings must already have been removed.
void
freewalk(pagetable_t pagetable)
{
    800009ec:	7179                	add	sp,sp,-48
    800009ee:	f406                	sd	ra,40(sp)
    800009f0:	f022                	sd	s0,32(sp)
    800009f2:	ec26                	sd	s1,24(sp)
    800009f4:	e84a                	sd	s2,16(sp)
    800009f6:	e44e                	sd	s3,8(sp)
    800009f8:	e052                	sd	s4,0(sp)
    800009fa:	1800                	add	s0,sp,48
    800009fc:	8a2a                	mv	s4,a0
  // there are 2^9 = 512 PTEs in a page table.
  for(int i = 0; i < 512; i++){
    800009fe:	84aa                	mv	s1,a0
    80000a00:	6905                	lui	s2,0x1
    80000a02:	992a                	add	s2,s2,a0
    pte_t pte = pagetable[i];
    if((pte & PTE_V) && (pte & (PTE_R|PTE_W|PTE_X)) == 0){
    80000a04:	4985                	li	s3,1
    80000a06:	a829                	j	80000a20 <freewalk+0x34>
      // this PTE points to a lower-level page table.
      uint64 child = PTE2PA(pte);
    80000a08:	83a9                	srl	a5,a5,0xa
      freewalk((pagetable_t)child);
    80000a0a:	00c79513          	sll	a0,a5,0xc
    80000a0e:	00000097          	auipc	ra,0x0
    80000a12:	fde080e7          	jalr	-34(ra) # 800009ec <freewalk>
      pagetable[i] = 0;
    80000a16:	0004b023          	sd	zero,0(s1)
  for(int i = 0; i < 512; i++){
    80000a1a:	04a1                	add	s1,s1,8
    80000a1c:	03248163          	beq	s1,s2,80000a3e <freewalk+0x52>
    pte_t pte = pagetable[i];
    80000a20:	609c                	ld	a5,0(s1)
    if((pte & PTE_V) && (pte & (PTE_R|PTE_W|PTE_X)) == 0){
    80000a22:	00f7f713          	and	a4,a5,15
    80000a26:	ff3701e3          	beq	a4,s3,80000a08 <freewalk+0x1c>
    } else if(pte & PTE_V){
    80000a2a:	8b85                	and	a5,a5,1
    80000a2c:	d7fd                	beqz	a5,80000a1a <freewalk+0x2e>
      panic("freewalk: leaf");
    80000a2e:	00007517          	auipc	a0,0x7
    80000a32:	70a50513          	add	a0,a0,1802 # 80008138 <etext+0x138>
    80000a36:	00005097          	auipc	ra,0x5
    80000a3a:	5bc080e7          	jalr	1468(ra) # 80005ff2 <panic>
    }
  }
  kfree((void*)pagetable);
    80000a3e:	8552                	mv	a0,s4
    80000a40:	fffff097          	auipc	ra,0xfffff
    80000a44:	5dc080e7          	jalr	1500(ra) # 8000001c <kfree>
}
    80000a48:	70a2                	ld	ra,40(sp)
    80000a4a:	7402                	ld	s0,32(sp)
    80000a4c:	64e2                	ld	s1,24(sp)
    80000a4e:	6942                	ld	s2,16(sp)
    80000a50:	69a2                	ld	s3,8(sp)
    80000a52:	6a02                	ld	s4,0(sp)
    80000a54:	6145                	add	sp,sp,48
    80000a56:	8082                	ret

0000000080000a58 <uvmfree>:

// Free user memory pages,
// then free page-table pages.
void
uvmfree(pagetable_t pagetable, uint64 sz)
{
    80000a58:	1101                	add	sp,sp,-32
    80000a5a:	ec06                	sd	ra,24(sp)
    80000a5c:	e822                	sd	s0,16(sp)
    80000a5e:	e426                	sd	s1,8(sp)
    80000a60:	1000                	add	s0,sp,32
    80000a62:	84aa                	mv	s1,a0
  if(sz > 0)
    80000a64:	e999                	bnez	a1,80000a7a <uvmfree+0x22>
    uvmunmap(pagetable, 0, PGROUNDUP(sz)/PGSIZE, 1);
  freewalk(pagetable);
    80000a66:	8526                	mv	a0,s1
    80000a68:	00000097          	auipc	ra,0x0
    80000a6c:	f84080e7          	jalr	-124(ra) # 800009ec <freewalk>
}
    80000a70:	60e2                	ld	ra,24(sp)
    80000a72:	6442                	ld	s0,16(sp)
    80000a74:	64a2                	ld	s1,8(sp)
    80000a76:	6105                	add	sp,sp,32
    80000a78:	8082                	ret
    uvmunmap(pagetable, 0, PGROUNDUP(sz)/PGSIZE, 1);
    80000a7a:	6785                	lui	a5,0x1
    80000a7c:	17fd                	add	a5,a5,-1 # fff <_entry-0x7ffff001>
    80000a7e:	95be                	add	a1,a1,a5
    80000a80:	4685                	li	a3,1
    80000a82:	00c5d613          	srl	a2,a1,0xc
    80000a86:	4581                	li	a1,0
    80000a88:	00000097          	auipc	ra,0x0
    80000a8c:	cea080e7          	jalr	-790(ra) # 80000772 <uvmunmap>
    80000a90:	bfd9                	j	80000a66 <uvmfree+0xe>

0000000080000a92 <uvmcopy>:
  pte_t *pte;
  uint64 pa, i;
  uint flags;
  char *mem;

  for(i = 0; i < sz; i += PGSIZE){
    80000a92:	c679                	beqz	a2,80000b60 <uvmcopy+0xce>
{
    80000a94:	715d                	add	sp,sp,-80
    80000a96:	e486                	sd	ra,72(sp)
    80000a98:	e0a2                	sd	s0,64(sp)
    80000a9a:	fc26                	sd	s1,56(sp)
    80000a9c:	f84a                	sd	s2,48(sp)
    80000a9e:	f44e                	sd	s3,40(sp)
    80000aa0:	f052                	sd	s4,32(sp)
    80000aa2:	ec56                	sd	s5,24(sp)
    80000aa4:	e85a                	sd	s6,16(sp)
    80000aa6:	e45e                	sd	s7,8(sp)
    80000aa8:	0880                	add	s0,sp,80
    80000aaa:	8b2a                	mv	s6,a0
    80000aac:	8aae                	mv	s5,a1
    80000aae:	8a32                	mv	s4,a2
  for(i = 0; i < sz; i += PGSIZE){
    80000ab0:	4981                	li	s3,0
    if((pte = walk(old, i, 0)) == 0)
    80000ab2:	4601                	li	a2,0
    80000ab4:	85ce                	mv	a1,s3
    80000ab6:	855a                	mv	a0,s6
    80000ab8:	00000097          	auipc	ra,0x0
    80000abc:	9e8080e7          	jalr	-1560(ra) # 800004a0 <walk>
    80000ac0:	c531                	beqz	a0,80000b0c <uvmcopy+0x7a>
      panic("uvmcopy: pte should exist");
    if((*pte & PTE_V) == 0)
    80000ac2:	6118                	ld	a4,0(a0)
    80000ac4:	00177793          	and	a5,a4,1
    80000ac8:	cbb1                	beqz	a5,80000b1c <uvmcopy+0x8a>
      panic("uvmcopy: page not present");
    pa = PTE2PA(*pte);
    80000aca:	00a75593          	srl	a1,a4,0xa
    80000ace:	00c59b93          	sll	s7,a1,0xc
    flags = PTE_FLAGS(*pte);
    80000ad2:	3ff77493          	and	s1,a4,1023
    if((mem = kalloc()) == 0)
    80000ad6:	fffff097          	auipc	ra,0xfffff
    80000ada:	644080e7          	jalr	1604(ra) # 8000011a <kalloc>
    80000ade:	892a                	mv	s2,a0
    80000ae0:	c939                	beqz	a0,80000b36 <uvmcopy+0xa4>
      goto err;
    memmove(mem, (char*)pa, PGSIZE);
    80000ae2:	6605                	lui	a2,0x1
    80000ae4:	85de                	mv	a1,s7
    80000ae6:	fffff097          	auipc	ra,0xfffff
    80000aea:	73a080e7          	jalr	1850(ra) # 80000220 <memmove>
    if(mappages(new, i, PGSIZE, (uint64)mem, flags) != 0){
    80000aee:	8726                	mv	a4,s1
    80000af0:	86ca                	mv	a3,s2
    80000af2:	6605                	lui	a2,0x1
    80000af4:	85ce                	mv	a1,s3
    80000af6:	8556                	mv	a0,s5
    80000af8:	00000097          	auipc	ra,0x0
    80000afc:	a90080e7          	jalr	-1392(ra) # 80000588 <mappages>
    80000b00:	e515                	bnez	a0,80000b2c <uvmcopy+0x9a>
  for(i = 0; i < sz; i += PGSIZE){
    80000b02:	6785                	lui	a5,0x1
    80000b04:	99be                	add	s3,s3,a5
    80000b06:	fb49e6e3          	bltu	s3,s4,80000ab2 <uvmcopy+0x20>
    80000b0a:	a081                	j	80000b4a <uvmcopy+0xb8>
      panic("uvmcopy: pte should exist");
    80000b0c:	00007517          	auipc	a0,0x7
    80000b10:	63c50513          	add	a0,a0,1596 # 80008148 <etext+0x148>
    80000b14:	00005097          	auipc	ra,0x5
    80000b18:	4de080e7          	jalr	1246(ra) # 80005ff2 <panic>
      panic("uvmcopy: page not present");
    80000b1c:	00007517          	auipc	a0,0x7
    80000b20:	64c50513          	add	a0,a0,1612 # 80008168 <etext+0x168>
    80000b24:	00005097          	auipc	ra,0x5
    80000b28:	4ce080e7          	jalr	1230(ra) # 80005ff2 <panic>
      kfree(mem);
    80000b2c:	854a                	mv	a0,s2
    80000b2e:	fffff097          	auipc	ra,0xfffff
    80000b32:	4ee080e7          	jalr	1262(ra) # 8000001c <kfree>
    }
  }
  return 0;

 err:
  uvmunmap(new, 0, i / PGSIZE, 1);
    80000b36:	4685                	li	a3,1
    80000b38:	00c9d613          	srl	a2,s3,0xc
    80000b3c:	4581                	li	a1,0
    80000b3e:	8556                	mv	a0,s5
    80000b40:	00000097          	auipc	ra,0x0
    80000b44:	c32080e7          	jalr	-974(ra) # 80000772 <uvmunmap>
  return -1;
    80000b48:	557d                	li	a0,-1
}
    80000b4a:	60a6                	ld	ra,72(sp)
    80000b4c:	6406                	ld	s0,64(sp)
    80000b4e:	74e2                	ld	s1,56(sp)
    80000b50:	7942                	ld	s2,48(sp)
    80000b52:	79a2                	ld	s3,40(sp)
    80000b54:	7a02                	ld	s4,32(sp)
    80000b56:	6ae2                	ld	s5,24(sp)
    80000b58:	6b42                	ld	s6,16(sp)
    80000b5a:	6ba2                	ld	s7,8(sp)
    80000b5c:	6161                	add	sp,sp,80
    80000b5e:	8082                	ret
  return 0;
    80000b60:	4501                	li	a0,0
}
    80000b62:	8082                	ret

0000000080000b64 <uvmclear>:

// mark a PTE invalid for user access.
// used by exec for the user stack guard page.
void
uvmclear(pagetable_t pagetable, uint64 va)
{
    80000b64:	1141                	add	sp,sp,-16
    80000b66:	e406                	sd	ra,8(sp)
    80000b68:	e022                	sd	s0,0(sp)
    80000b6a:	0800                	add	s0,sp,16
  pte_t *pte;
  
  pte = walk(pagetable, va, 0);
    80000b6c:	4601                	li	a2,0
    80000b6e:	00000097          	auipc	ra,0x0
    80000b72:	932080e7          	jalr	-1742(ra) # 800004a0 <walk>
  if(pte == 0)
    80000b76:	c901                	beqz	a0,80000b86 <uvmclear+0x22>
    panic("uvmclear");
  *pte &= ~PTE_U;
    80000b78:	611c                	ld	a5,0(a0)
    80000b7a:	9bbd                	and	a5,a5,-17
    80000b7c:	e11c                	sd	a5,0(a0)
}
    80000b7e:	60a2                	ld	ra,8(sp)
    80000b80:	6402                	ld	s0,0(sp)
    80000b82:	0141                	add	sp,sp,16
    80000b84:	8082                	ret
    panic("uvmclear");
    80000b86:	00007517          	auipc	a0,0x7
    80000b8a:	60250513          	add	a0,a0,1538 # 80008188 <etext+0x188>
    80000b8e:	00005097          	auipc	ra,0x5
    80000b92:	464080e7          	jalr	1124(ra) # 80005ff2 <panic>

0000000080000b96 <copyout>:
copyout(pagetable_t pagetable, uint64 dstva, char *src, uint64 len)
{
  uint64 n, va0, pa0;
  pte_t *pte;

  while(len > 0){
    80000b96:	ced1                	beqz	a3,80000c32 <copyout+0x9c>
{
    80000b98:	711d                	add	sp,sp,-96
    80000b9a:	ec86                	sd	ra,88(sp)
    80000b9c:	e8a2                	sd	s0,80(sp)
    80000b9e:	e4a6                	sd	s1,72(sp)
    80000ba0:	fc4e                	sd	s3,56(sp)
    80000ba2:	f456                	sd	s5,40(sp)
    80000ba4:	f05a                	sd	s6,32(sp)
    80000ba6:	ec5e                	sd	s7,24(sp)
    80000ba8:	1080                	add	s0,sp,96
    80000baa:	8baa                	mv	s7,a0
    80000bac:	8aae                	mv	s5,a1
    80000bae:	8b32                	mv	s6,a2
    80000bb0:	89b6                	mv	s3,a3
    va0 = PGROUNDDOWN(dstva);
    80000bb2:	74fd                	lui	s1,0xfffff
    80000bb4:	8ced                	and	s1,s1,a1
    if(va0 >= MAXVA)
    80000bb6:	57fd                	li	a5,-1
    80000bb8:	83e9                	srl	a5,a5,0x1a
    80000bba:	0697ee63          	bltu	a5,s1,80000c36 <copyout+0xa0>
    80000bbe:	e0ca                	sd	s2,64(sp)
    80000bc0:	f852                	sd	s4,48(sp)
    80000bc2:	e862                	sd	s8,16(sp)
    80000bc4:	e466                	sd	s9,8(sp)
    80000bc6:	e06a                	sd	s10,0(sp)
      return -1;
    pte = walk(pagetable, va0, 0);
    if(pte == 0 || (*pte & PTE_V) == 0 || (*pte & PTE_U) == 0 ||
    80000bc8:	4cd5                	li	s9,21
    80000bca:	6d05                	lui	s10,0x1
    if(va0 >= MAXVA)
    80000bcc:	8c3e                	mv	s8,a5
    80000bce:	a035                	j	80000bfa <copyout+0x64>
       (*pte & PTE_W) == 0)
      return -1;
    pa0 = PTE2PA(*pte);
    80000bd0:	83a9                	srl	a5,a5,0xa
    80000bd2:	07b2                	sll	a5,a5,0xc
    n = PGSIZE - (dstva - va0);
    if(n > len)
      n = len;
    memmove((void *)(pa0 + (dstva - va0)), src, n);
    80000bd4:	409a8533          	sub	a0,s5,s1
    80000bd8:	0009061b          	sext.w	a2,s2
    80000bdc:	85da                	mv	a1,s6
    80000bde:	953e                	add	a0,a0,a5
    80000be0:	fffff097          	auipc	ra,0xfffff
    80000be4:	640080e7          	jalr	1600(ra) # 80000220 <memmove>

    len -= n;
    80000be8:	412989b3          	sub	s3,s3,s2
    src += n;
    80000bec:	9b4a                	add	s6,s6,s2
  while(len > 0){
    80000bee:	02098b63          	beqz	s3,80000c24 <copyout+0x8e>
    if(va0 >= MAXVA)
    80000bf2:	054c6463          	bltu	s8,s4,80000c3a <copyout+0xa4>
    80000bf6:	84d2                	mv	s1,s4
    80000bf8:	8ad2                	mv	s5,s4
    pte = walk(pagetable, va0, 0);
    80000bfa:	4601                	li	a2,0
    80000bfc:	85a6                	mv	a1,s1
    80000bfe:	855e                	mv	a0,s7
    80000c00:	00000097          	auipc	ra,0x0
    80000c04:	8a0080e7          	jalr	-1888(ra) # 800004a0 <walk>
    if(pte == 0 || (*pte & PTE_V) == 0 || (*pte & PTE_U) == 0 ||
    80000c08:	c121                	beqz	a0,80000c48 <copyout+0xb2>
    80000c0a:	611c                	ld	a5,0(a0)
    80000c0c:	0157f713          	and	a4,a5,21
    80000c10:	05971b63          	bne	a4,s9,80000c66 <copyout+0xd0>
    n = PGSIZE - (dstva - va0);
    80000c14:	01a48a33          	add	s4,s1,s10
    80000c18:	415a0933          	sub	s2,s4,s5
    if(n > len)
    80000c1c:	fb29fae3          	bgeu	s3,s2,80000bd0 <copyout+0x3a>
    80000c20:	894e                	mv	s2,s3
    80000c22:	b77d                	j	80000bd0 <copyout+0x3a>
    dstva = va0 + PGSIZE;
  }
  return 0;
    80000c24:	4501                	li	a0,0
    80000c26:	6906                	ld	s2,64(sp)
    80000c28:	7a42                	ld	s4,48(sp)
    80000c2a:	6c42                	ld	s8,16(sp)
    80000c2c:	6ca2                	ld	s9,8(sp)
    80000c2e:	6d02                	ld	s10,0(sp)
    80000c30:	a015                	j	80000c54 <copyout+0xbe>
    80000c32:	4501                	li	a0,0
}
    80000c34:	8082                	ret
      return -1;
    80000c36:	557d                	li	a0,-1
    80000c38:	a831                	j	80000c54 <copyout+0xbe>
    80000c3a:	557d                	li	a0,-1
    80000c3c:	6906                	ld	s2,64(sp)
    80000c3e:	7a42                	ld	s4,48(sp)
    80000c40:	6c42                	ld	s8,16(sp)
    80000c42:	6ca2                	ld	s9,8(sp)
    80000c44:	6d02                	ld	s10,0(sp)
    80000c46:	a039                	j	80000c54 <copyout+0xbe>
      return -1;
    80000c48:	557d                	li	a0,-1
    80000c4a:	6906                	ld	s2,64(sp)
    80000c4c:	7a42                	ld	s4,48(sp)
    80000c4e:	6c42                	ld	s8,16(sp)
    80000c50:	6ca2                	ld	s9,8(sp)
    80000c52:	6d02                	ld	s10,0(sp)
}
    80000c54:	60e6                	ld	ra,88(sp)
    80000c56:	6446                	ld	s0,80(sp)
    80000c58:	64a6                	ld	s1,72(sp)
    80000c5a:	79e2                	ld	s3,56(sp)
    80000c5c:	7aa2                	ld	s5,40(sp)
    80000c5e:	7b02                	ld	s6,32(sp)
    80000c60:	6be2                	ld	s7,24(sp)
    80000c62:	6125                	add	sp,sp,96
    80000c64:	8082                	ret
      return -1;
    80000c66:	557d                	li	a0,-1
    80000c68:	6906                	ld	s2,64(sp)
    80000c6a:	7a42                	ld	s4,48(sp)
    80000c6c:	6c42                	ld	s8,16(sp)
    80000c6e:	6ca2                	ld	s9,8(sp)
    80000c70:	6d02                	ld	s10,0(sp)
    80000c72:	b7cd                	j	80000c54 <copyout+0xbe>

0000000080000c74 <copyin>:
int
copyin(pagetable_t pagetable, char *dst, uint64 srcva, uint64 len)
{
  uint64 n, va0, pa0;

  while(len > 0){
    80000c74:	caa5                	beqz	a3,80000ce4 <copyin+0x70>
{
    80000c76:	715d                	add	sp,sp,-80
    80000c78:	e486                	sd	ra,72(sp)
    80000c7a:	e0a2                	sd	s0,64(sp)
    80000c7c:	fc26                	sd	s1,56(sp)
    80000c7e:	f84a                	sd	s2,48(sp)
    80000c80:	f44e                	sd	s3,40(sp)
    80000c82:	f052                	sd	s4,32(sp)
    80000c84:	ec56                	sd	s5,24(sp)
    80000c86:	e85a                	sd	s6,16(sp)
    80000c88:	e45e                	sd	s7,8(sp)
    80000c8a:	e062                	sd	s8,0(sp)
    80000c8c:	0880                	add	s0,sp,80
    80000c8e:	8b2a                	mv	s6,a0
    80000c90:	8a2e                	mv	s4,a1
    80000c92:	8c32                	mv	s8,a2
    80000c94:	89b6                	mv	s3,a3
    va0 = PGROUNDDOWN(srcva);
    80000c96:	7bfd                	lui	s7,0xfffff
    pa0 = walkaddr(pagetable, va0);
    if(pa0 == 0)
      return -1;
    n = PGSIZE - (srcva - va0);
    80000c98:	6a85                	lui	s5,0x1
    80000c9a:	a01d                	j	80000cc0 <copyin+0x4c>
    if(n > len)
      n = len;
    memmove(dst, (void *)(pa0 + (srcva - va0)), n);
    80000c9c:	018505b3          	add	a1,a0,s8
    80000ca0:	0004861b          	sext.w	a2,s1
    80000ca4:	412585b3          	sub	a1,a1,s2
    80000ca8:	8552                	mv	a0,s4
    80000caa:	fffff097          	auipc	ra,0xfffff
    80000cae:	576080e7          	jalr	1398(ra) # 80000220 <memmove>

    len -= n;
    80000cb2:	409989b3          	sub	s3,s3,s1
    dst += n;
    80000cb6:	9a26                	add	s4,s4,s1
    srcva = va0 + PGSIZE;
    80000cb8:	01590c33          	add	s8,s2,s5
  while(len > 0){
    80000cbc:	02098263          	beqz	s3,80000ce0 <copyin+0x6c>
    va0 = PGROUNDDOWN(srcva);
    80000cc0:	017c7933          	and	s2,s8,s7
    pa0 = walkaddr(pagetable, va0);
    80000cc4:	85ca                	mv	a1,s2
    80000cc6:	855a                	mv	a0,s6
    80000cc8:	00000097          	auipc	ra,0x0
    80000ccc:	87e080e7          	jalr	-1922(ra) # 80000546 <walkaddr>
    if(pa0 == 0)
    80000cd0:	cd01                	beqz	a0,80000ce8 <copyin+0x74>
    n = PGSIZE - (srcva - va0);
    80000cd2:	418904b3          	sub	s1,s2,s8
    80000cd6:	94d6                	add	s1,s1,s5
    if(n > len)
    80000cd8:	fc99f2e3          	bgeu	s3,s1,80000c9c <copyin+0x28>
    80000cdc:	84ce                	mv	s1,s3
    80000cde:	bf7d                	j	80000c9c <copyin+0x28>
  }
  return 0;
    80000ce0:	4501                	li	a0,0
    80000ce2:	a021                	j	80000cea <copyin+0x76>
    80000ce4:	4501                	li	a0,0
}
    80000ce6:	8082                	ret
      return -1;
    80000ce8:	557d                	li	a0,-1
}
    80000cea:	60a6                	ld	ra,72(sp)
    80000cec:	6406                	ld	s0,64(sp)
    80000cee:	74e2                	ld	s1,56(sp)
    80000cf0:	7942                	ld	s2,48(sp)
    80000cf2:	79a2                	ld	s3,40(sp)
    80000cf4:	7a02                	ld	s4,32(sp)
    80000cf6:	6ae2                	ld	s5,24(sp)
    80000cf8:	6b42                	ld	s6,16(sp)
    80000cfa:	6ba2                	ld	s7,8(sp)
    80000cfc:	6c02                	ld	s8,0(sp)
    80000cfe:	6161                	add	sp,sp,80
    80000d00:	8082                	ret

0000000080000d02 <copyinstr>:
copyinstr(pagetable_t pagetable, char *dst, uint64 srcva, uint64 max)
{
  uint64 n, va0, pa0;
  int got_null = 0;

  while(got_null == 0 && max > 0){
    80000d02:	cacd                	beqz	a3,80000db4 <copyinstr+0xb2>
{
    80000d04:	715d                	add	sp,sp,-80
    80000d06:	e486                	sd	ra,72(sp)
    80000d08:	e0a2                	sd	s0,64(sp)
    80000d0a:	fc26                	sd	s1,56(sp)
    80000d0c:	f84a                	sd	s2,48(sp)
    80000d0e:	f44e                	sd	s3,40(sp)
    80000d10:	f052                	sd	s4,32(sp)
    80000d12:	ec56                	sd	s5,24(sp)
    80000d14:	e85a                	sd	s6,16(sp)
    80000d16:	e45e                	sd	s7,8(sp)
    80000d18:	0880                	add	s0,sp,80
    80000d1a:	8a2a                	mv	s4,a0
    80000d1c:	8b2e                	mv	s6,a1
    80000d1e:	8bb2                	mv	s7,a2
    80000d20:	8936                	mv	s2,a3
    va0 = PGROUNDDOWN(srcva);
    80000d22:	7afd                	lui	s5,0xfffff
    pa0 = walkaddr(pagetable, va0);
    if(pa0 == 0)
      return -1;
    n = PGSIZE - (srcva - va0);
    80000d24:	6985                	lui	s3,0x1
    80000d26:	a825                	j	80000d5e <copyinstr+0x5c>
      n = max;

    char *p = (char *) (pa0 + (srcva - va0));
    while(n > 0){
      if(*p == '\0'){
        *dst = '\0';
    80000d28:	00078023          	sb	zero,0(a5) # 1000 <_entry-0x7ffff000>
    80000d2c:	4785                	li	a5,1
      dst++;
    }

    srcva = va0 + PGSIZE;
  }
  if(got_null){
    80000d2e:	37fd                	addw	a5,a5,-1
    80000d30:	0007851b          	sext.w	a0,a5
    return 0;
  } else {
    return -1;
  }
}
    80000d34:	60a6                	ld	ra,72(sp)
    80000d36:	6406                	ld	s0,64(sp)
    80000d38:	74e2                	ld	s1,56(sp)
    80000d3a:	7942                	ld	s2,48(sp)
    80000d3c:	79a2                	ld	s3,40(sp)
    80000d3e:	7a02                	ld	s4,32(sp)
    80000d40:	6ae2                	ld	s5,24(sp)
    80000d42:	6b42                	ld	s6,16(sp)
    80000d44:	6ba2                	ld	s7,8(sp)
    80000d46:	6161                	add	sp,sp,80
    80000d48:	8082                	ret
    80000d4a:	fff90713          	add	a4,s2,-1 # fff <_entry-0x7ffff001>
    80000d4e:	9742                	add	a4,a4,a6
      --max;
    80000d50:	40b70933          	sub	s2,a4,a1
    srcva = va0 + PGSIZE;
    80000d54:	01348bb3          	add	s7,s1,s3
  while(got_null == 0 && max > 0){
    80000d58:	04e58663          	beq	a1,a4,80000da4 <copyinstr+0xa2>
{
    80000d5c:	8b3e                	mv	s6,a5
    va0 = PGROUNDDOWN(srcva);
    80000d5e:	015bf4b3          	and	s1,s7,s5
    pa0 = walkaddr(pagetable, va0);
    80000d62:	85a6                	mv	a1,s1
    80000d64:	8552                	mv	a0,s4
    80000d66:	fffff097          	auipc	ra,0xfffff
    80000d6a:	7e0080e7          	jalr	2016(ra) # 80000546 <walkaddr>
    if(pa0 == 0)
    80000d6e:	cd0d                	beqz	a0,80000da8 <copyinstr+0xa6>
    n = PGSIZE - (srcva - va0);
    80000d70:	417486b3          	sub	a3,s1,s7
    80000d74:	96ce                	add	a3,a3,s3
    if(n > max)
    80000d76:	00d97363          	bgeu	s2,a3,80000d7c <copyinstr+0x7a>
    80000d7a:	86ca                	mv	a3,s2
    char *p = (char *) (pa0 + (srcva - va0));
    80000d7c:	955e                	add	a0,a0,s7
    80000d7e:	8d05                	sub	a0,a0,s1
    while(n > 0){
    80000d80:	c695                	beqz	a3,80000dac <copyinstr+0xaa>
    80000d82:	87da                	mv	a5,s6
    80000d84:	885a                	mv	a6,s6
      if(*p == '\0'){
    80000d86:	41650633          	sub	a2,a0,s6
    while(n > 0){
    80000d8a:	96da                	add	a3,a3,s6
    80000d8c:	85be                	mv	a1,a5
      if(*p == '\0'){
    80000d8e:	00f60733          	add	a4,a2,a5
    80000d92:	00074703          	lbu	a4,0(a4)
    80000d96:	db49                	beqz	a4,80000d28 <copyinstr+0x26>
        *dst = *p;
    80000d98:	00e78023          	sb	a4,0(a5)
      dst++;
    80000d9c:	0785                	add	a5,a5,1
    while(n > 0){
    80000d9e:	fed797e3          	bne	a5,a3,80000d8c <copyinstr+0x8a>
    80000da2:	b765                	j	80000d4a <copyinstr+0x48>
    80000da4:	4781                	li	a5,0
    80000da6:	b761                	j	80000d2e <copyinstr+0x2c>
      return -1;
    80000da8:	557d                	li	a0,-1
    80000daa:	b769                	j	80000d34 <copyinstr+0x32>
    srcva = va0 + PGSIZE;
    80000dac:	6b85                	lui	s7,0x1
    80000dae:	9ba6                	add	s7,s7,s1
    80000db0:	87da                	mv	a5,s6
    80000db2:	b76d                	j	80000d5c <copyinstr+0x5a>
  int got_null = 0;
    80000db4:	4781                	li	a5,0
  if(got_null){
    80000db6:	37fd                	addw	a5,a5,-1
    80000db8:	0007851b          	sext.w	a0,a5
}
    80000dbc:	8082                	ret

0000000080000dbe <proc_mapstacks>:
// Allocate a page for each process's kernel stack.
// Map it high in memory, followed by an invalid
// guard page.
void
proc_mapstacks(pagetable_t kpgtbl)
{
    80000dbe:	7139                	add	sp,sp,-64
    80000dc0:	fc06                	sd	ra,56(sp)
    80000dc2:	f822                	sd	s0,48(sp)
    80000dc4:	f426                	sd	s1,40(sp)
    80000dc6:	f04a                	sd	s2,32(sp)
    80000dc8:	ec4e                	sd	s3,24(sp)
    80000dca:	e852                	sd	s4,16(sp)
    80000dcc:	e456                	sd	s5,8(sp)
    80000dce:	e05a                	sd	s6,0(sp)
    80000dd0:	0080                	add	s0,sp,64
    80000dd2:	8a2a                	mv	s4,a0
  struct proc *p;
  
  for(p = proc; p < &proc[NPROC]; p++) {
    80000dd4:	0000b497          	auipc	s1,0xb
    80000dd8:	a9c48493          	add	s1,s1,-1380 # 8000b870 <proc>
    char *pa = kalloc();
    if(pa == 0)
      panic("kalloc");
    uint64 va = KSTACK((int) (p - proc));
    80000ddc:	8b26                	mv	s6,s1
    80000dde:	04fa5937          	lui	s2,0x4fa5
    80000de2:	fa590913          	add	s2,s2,-91 # 4fa4fa5 <_entry-0x7b05b05b>
    80000de6:	0932                	sll	s2,s2,0xc
    80000de8:	fa590913          	add	s2,s2,-91
    80000dec:	0932                	sll	s2,s2,0xc
    80000dee:	fa590913          	add	s2,s2,-91
    80000df2:	0932                	sll	s2,s2,0xc
    80000df4:	fa590913          	add	s2,s2,-91
    80000df8:	040009b7          	lui	s3,0x4000
    80000dfc:	19fd                	add	s3,s3,-1 # 3ffffff <_entry-0x7c000001>
    80000dfe:	09b2                	sll	s3,s3,0xc
  for(p = proc; p < &proc[NPROC]; p++) {
    80000e00:	00010a97          	auipc	s5,0x10
    80000e04:	470a8a93          	add	s5,s5,1136 # 80011270 <tickslock>
    char *pa = kalloc();
    80000e08:	fffff097          	auipc	ra,0xfffff
    80000e0c:	312080e7          	jalr	786(ra) # 8000011a <kalloc>
    80000e10:	862a                	mv	a2,a0
    if(pa == 0)
    80000e12:	c121                	beqz	a0,80000e52 <proc_mapstacks+0x94>
    uint64 va = KSTACK((int) (p - proc));
    80000e14:	416485b3          	sub	a1,s1,s6
    80000e18:	858d                	sra	a1,a1,0x3
    80000e1a:	032585b3          	mul	a1,a1,s2
    80000e1e:	2585                	addw	a1,a1,1
    80000e20:	00d5959b          	sllw	a1,a1,0xd
    kvmmap(kpgtbl, va, (uint64)pa, PGSIZE, PTE_R | PTE_W);
    80000e24:	4719                	li	a4,6
    80000e26:	6685                	lui	a3,0x1
    80000e28:	40b985b3          	sub	a1,s3,a1
    80000e2c:	8552                	mv	a0,s4
    80000e2e:	00000097          	auipc	ra,0x0
    80000e32:	81e080e7          	jalr	-2018(ra) # 8000064c <kvmmap>
  for(p = proc; p < &proc[NPROC]; p++) {
    80000e36:	16848493          	add	s1,s1,360
    80000e3a:	fd5497e3          	bne	s1,s5,80000e08 <proc_mapstacks+0x4a>
  }
}
    80000e3e:	70e2                	ld	ra,56(sp)
    80000e40:	7442                	ld	s0,48(sp)
    80000e42:	74a2                	ld	s1,40(sp)
    80000e44:	7902                	ld	s2,32(sp)
    80000e46:	69e2                	ld	s3,24(sp)
    80000e48:	6a42                	ld	s4,16(sp)
    80000e4a:	6aa2                	ld	s5,8(sp)
    80000e4c:	6b02                	ld	s6,0(sp)
    80000e4e:	6121                	add	sp,sp,64
    80000e50:	8082                	ret
      panic("kalloc");
    80000e52:	00007517          	auipc	a0,0x7
    80000e56:	34650513          	add	a0,a0,838 # 80008198 <etext+0x198>
    80000e5a:	00005097          	auipc	ra,0x5
    80000e5e:	198080e7          	jalr	408(ra) # 80005ff2 <panic>

0000000080000e62 <procinit>:

// initialize the proc table.
void
procinit(void)
{
    80000e62:	7139                	add	sp,sp,-64
    80000e64:	fc06                	sd	ra,56(sp)
    80000e66:	f822                	sd	s0,48(sp)
    80000e68:	f426                	sd	s1,40(sp)
    80000e6a:	f04a                	sd	s2,32(sp)
    80000e6c:	ec4e                	sd	s3,24(sp)
    80000e6e:	e852                	sd	s4,16(sp)
    80000e70:	e456                	sd	s5,8(sp)
    80000e72:	e05a                	sd	s6,0(sp)
    80000e74:	0080                	add	s0,sp,64
  struct proc *p;
  
  initlock(&pid_lock, "nextpid");
    80000e76:	00007597          	auipc	a1,0x7
    80000e7a:	32a58593          	add	a1,a1,810 # 800081a0 <etext+0x1a0>
    80000e7e:	0000a517          	auipc	a0,0xa
    80000e82:	5c250513          	add	a0,a0,1474 # 8000b440 <pid_lock>
    80000e86:	00005097          	auipc	ra,0x5
    80000e8a:	656080e7          	jalr	1622(ra) # 800064dc <initlock>
  initlock(&wait_lock, "wait_lock");
    80000e8e:	00007597          	auipc	a1,0x7
    80000e92:	31a58593          	add	a1,a1,794 # 800081a8 <etext+0x1a8>
    80000e96:	0000a517          	auipc	a0,0xa
    80000e9a:	5c250513          	add	a0,a0,1474 # 8000b458 <wait_lock>
    80000e9e:	00005097          	auipc	ra,0x5
    80000ea2:	63e080e7          	jalr	1598(ra) # 800064dc <initlock>
  for(p = proc; p < &proc[NPROC]; p++) {
    80000ea6:	0000b497          	auipc	s1,0xb
    80000eaa:	9ca48493          	add	s1,s1,-1590 # 8000b870 <proc>
      initlock(&p->lock, "proc");
    80000eae:	00007b17          	auipc	s6,0x7
    80000eb2:	30ab0b13          	add	s6,s6,778 # 800081b8 <etext+0x1b8>
      p->state = UNUSED;
      p->kstack = KSTACK((int) (p - proc));
    80000eb6:	8aa6                	mv	s5,s1
    80000eb8:	04fa5937          	lui	s2,0x4fa5
    80000ebc:	fa590913          	add	s2,s2,-91 # 4fa4fa5 <_entry-0x7b05b05b>
    80000ec0:	0932                	sll	s2,s2,0xc
    80000ec2:	fa590913          	add	s2,s2,-91
    80000ec6:	0932                	sll	s2,s2,0xc
    80000ec8:	fa590913          	add	s2,s2,-91
    80000ecc:	0932                	sll	s2,s2,0xc
    80000ece:	fa590913          	add	s2,s2,-91
    80000ed2:	040009b7          	lui	s3,0x4000
    80000ed6:	19fd                	add	s3,s3,-1 # 3ffffff <_entry-0x7c000001>
    80000ed8:	09b2                	sll	s3,s3,0xc
  for(p = proc; p < &proc[NPROC]; p++) {
    80000eda:	00010a17          	auipc	s4,0x10
    80000ede:	396a0a13          	add	s4,s4,918 # 80011270 <tickslock>
      initlock(&p->lock, "proc");
    80000ee2:	85da                	mv	a1,s6
    80000ee4:	8526                	mv	a0,s1
    80000ee6:	00005097          	auipc	ra,0x5
    80000eea:	5f6080e7          	jalr	1526(ra) # 800064dc <initlock>
      p->state = UNUSED;
    80000eee:	0004ac23          	sw	zero,24(s1)
      p->kstack = KSTACK((int) (p - proc));
    80000ef2:	415487b3          	sub	a5,s1,s5
    80000ef6:	878d                	sra	a5,a5,0x3
    80000ef8:	032787b3          	mul	a5,a5,s2
    80000efc:	2785                	addw	a5,a5,1
    80000efe:	00d7979b          	sllw	a5,a5,0xd
    80000f02:	40f987b3          	sub	a5,s3,a5
    80000f06:	e0bc                	sd	a5,64(s1)
  for(p = proc; p < &proc[NPROC]; p++) {
    80000f08:	16848493          	add	s1,s1,360
    80000f0c:	fd449be3          	bne	s1,s4,80000ee2 <procinit+0x80>
  }
}
    80000f10:	70e2                	ld	ra,56(sp)
    80000f12:	7442                	ld	s0,48(sp)
    80000f14:	74a2                	ld	s1,40(sp)
    80000f16:	7902                	ld	s2,32(sp)
    80000f18:	69e2                	ld	s3,24(sp)
    80000f1a:	6a42                	ld	s4,16(sp)
    80000f1c:	6aa2                	ld	s5,8(sp)
    80000f1e:	6b02                	ld	s6,0(sp)
    80000f20:	6121                	add	sp,sp,64
    80000f22:	8082                	ret

0000000080000f24 <cpuid>:
// Must be called with interrupts disabled,
// to prevent race with process being moved
// to a different CPU.
int
cpuid()
{
    80000f24:	1141                	add	sp,sp,-16
    80000f26:	e422                	sd	s0,8(sp)
    80000f28:	0800                	add	s0,sp,16
  asm volatile("mv %0, tp" : "=r" (x) );
    80000f2a:	8512                	mv	a0,tp
  int id = r_tp();
  return id;
}
    80000f2c:	2501                	sext.w	a0,a0
    80000f2e:	6422                	ld	s0,8(sp)
    80000f30:	0141                	add	sp,sp,16
    80000f32:	8082                	ret

0000000080000f34 <mycpu>:

// Return this CPU's cpu struct.
// Interrupts must be disabled.
struct cpu*
mycpu(void)
{
    80000f34:	1141                	add	sp,sp,-16
    80000f36:	e422                	sd	s0,8(sp)
    80000f38:	0800                	add	s0,sp,16
    80000f3a:	8792                	mv	a5,tp
  int id = cpuid();
  struct cpu *c = &cpus[id];
    80000f3c:	2781                	sext.w	a5,a5
    80000f3e:	079e                	sll	a5,a5,0x7
  return c;
}
    80000f40:	0000a517          	auipc	a0,0xa
    80000f44:	53050513          	add	a0,a0,1328 # 8000b470 <cpus>
    80000f48:	953e                	add	a0,a0,a5
    80000f4a:	6422                	ld	s0,8(sp)
    80000f4c:	0141                	add	sp,sp,16
    80000f4e:	8082                	ret

0000000080000f50 <myproc>:

// Return the current struct proc *, or zero if none.
struct proc*
myproc(void)
{
    80000f50:	1101                	add	sp,sp,-32
    80000f52:	ec06                	sd	ra,24(sp)
    80000f54:	e822                	sd	s0,16(sp)
    80000f56:	e426                	sd	s1,8(sp)
    80000f58:	1000                	add	s0,sp,32
  push_off();
    80000f5a:	00005097          	auipc	ra,0x5
    80000f5e:	5c6080e7          	jalr	1478(ra) # 80006520 <push_off>
    80000f62:	8792                	mv	a5,tp
  struct cpu *c = mycpu();
  struct proc *p = c->proc;
    80000f64:	2781                	sext.w	a5,a5
    80000f66:	079e                	sll	a5,a5,0x7
    80000f68:	0000a717          	auipc	a4,0xa
    80000f6c:	4d870713          	add	a4,a4,1240 # 8000b440 <pid_lock>
    80000f70:	97ba                	add	a5,a5,a4
    80000f72:	7b84                	ld	s1,48(a5)
  pop_off();
    80000f74:	00005097          	auipc	ra,0x5
    80000f78:	64c080e7          	jalr	1612(ra) # 800065c0 <pop_off>
  return p;
}
    80000f7c:	8526                	mv	a0,s1
    80000f7e:	60e2                	ld	ra,24(sp)
    80000f80:	6442                	ld	s0,16(sp)
    80000f82:	64a2                	ld	s1,8(sp)
    80000f84:	6105                	add	sp,sp,32
    80000f86:	8082                	ret

0000000080000f88 <forkret>:

// A fork child's very first scheduling by scheduler()
// will swtch to forkret.
void
forkret(void)
{
    80000f88:	1141                	add	sp,sp,-16
    80000f8a:	e406                	sd	ra,8(sp)
    80000f8c:	e022                	sd	s0,0(sp)
    80000f8e:	0800                	add	s0,sp,16
  static int first = 1;

  // Still holding p->lock from scheduler.
  release(&myproc()->lock);
    80000f90:	00000097          	auipc	ra,0x0
    80000f94:	fc0080e7          	jalr	-64(ra) # 80000f50 <myproc>
    80000f98:	00005097          	auipc	ra,0x5
    80000f9c:	688080e7          	jalr	1672(ra) # 80006620 <release>

  if (first) {
    80000fa0:	0000a797          	auipc	a5,0xa
    80000fa4:	3e07a783          	lw	a5,992(a5) # 8000b380 <first.1>
    80000fa8:	eb89                	bnez	a5,80000fba <forkret+0x32>
    first = 0;
    // ensure other cores see first=0.
    __sync_synchronize();
  }

  usertrapret();
    80000faa:	00001097          	auipc	ra,0x1
    80000fae:	c98080e7          	jalr	-872(ra) # 80001c42 <usertrapret>
}
    80000fb2:	60a2                	ld	ra,8(sp)
    80000fb4:	6402                	ld	s0,0(sp)
    80000fb6:	0141                	add	sp,sp,16
    80000fb8:	8082                	ret
    fsinit(ROOTDEV);
    80000fba:	4505                	li	a0,1
    80000fbc:	00002097          	auipc	ra,0x2
    80000fc0:	be2080e7          	jalr	-1054(ra) # 80002b9e <fsinit>
    first = 0;
    80000fc4:	0000a797          	auipc	a5,0xa
    80000fc8:	3a07ae23          	sw	zero,956(a5) # 8000b380 <first.1>
    __sync_synchronize();
    80000fcc:	0330000f          	fence	rw,rw
    80000fd0:	bfe9                	j	80000faa <forkret+0x22>

0000000080000fd2 <allocpid>:
{
    80000fd2:	1101                	add	sp,sp,-32
    80000fd4:	ec06                	sd	ra,24(sp)
    80000fd6:	e822                	sd	s0,16(sp)
    80000fd8:	e426                	sd	s1,8(sp)
    80000fda:	e04a                	sd	s2,0(sp)
    80000fdc:	1000                	add	s0,sp,32
  acquire(&pid_lock);
    80000fde:	0000a917          	auipc	s2,0xa
    80000fe2:	46290913          	add	s2,s2,1122 # 8000b440 <pid_lock>
    80000fe6:	854a                	mv	a0,s2
    80000fe8:	00005097          	auipc	ra,0x5
    80000fec:	584080e7          	jalr	1412(ra) # 8000656c <acquire>
  pid = nextpid;
    80000ff0:	0000a797          	auipc	a5,0xa
    80000ff4:	39478793          	add	a5,a5,916 # 8000b384 <nextpid>
    80000ff8:	4384                	lw	s1,0(a5)
  nextpid = nextpid + 1;
    80000ffa:	0014871b          	addw	a4,s1,1
    80000ffe:	c398                	sw	a4,0(a5)
  release(&pid_lock);
    80001000:	854a                	mv	a0,s2
    80001002:	00005097          	auipc	ra,0x5
    80001006:	61e080e7          	jalr	1566(ra) # 80006620 <release>
}
    8000100a:	8526                	mv	a0,s1
    8000100c:	60e2                	ld	ra,24(sp)
    8000100e:	6442                	ld	s0,16(sp)
    80001010:	64a2                	ld	s1,8(sp)
    80001012:	6902                	ld	s2,0(sp)
    80001014:	6105                	add	sp,sp,32
    80001016:	8082                	ret

0000000080001018 <proc_pagetable>:
{
    80001018:	1101                	add	sp,sp,-32
    8000101a:	ec06                	sd	ra,24(sp)
    8000101c:	e822                	sd	s0,16(sp)
    8000101e:	e426                	sd	s1,8(sp)
    80001020:	e04a                	sd	s2,0(sp)
    80001022:	1000                	add	s0,sp,32
    80001024:	892a                	mv	s2,a0
  pagetable = uvmcreate();
    80001026:	00000097          	auipc	ra,0x0
    8000102a:	820080e7          	jalr	-2016(ra) # 80000846 <uvmcreate>
    8000102e:	84aa                	mv	s1,a0
  if(pagetable == 0)
    80001030:	c121                	beqz	a0,80001070 <proc_pagetable+0x58>
  if(mappages(pagetable, TRAMPOLINE, PGSIZE,
    80001032:	4729                	li	a4,10
    80001034:	00006697          	auipc	a3,0x6
    80001038:	fcc68693          	add	a3,a3,-52 # 80007000 <_trampoline>
    8000103c:	6605                	lui	a2,0x1
    8000103e:	040005b7          	lui	a1,0x4000
    80001042:	15fd                	add	a1,a1,-1 # 3ffffff <_entry-0x7c000001>
    80001044:	05b2                	sll	a1,a1,0xc
    80001046:	fffff097          	auipc	ra,0xfffff
    8000104a:	542080e7          	jalr	1346(ra) # 80000588 <mappages>
    8000104e:	02054863          	bltz	a0,8000107e <proc_pagetable+0x66>
  if(mappages(pagetable, TRAPFRAME, PGSIZE,
    80001052:	4719                	li	a4,6
    80001054:	05893683          	ld	a3,88(s2)
    80001058:	6605                	lui	a2,0x1
    8000105a:	020005b7          	lui	a1,0x2000
    8000105e:	15fd                	add	a1,a1,-1 # 1ffffff <_entry-0x7e000001>
    80001060:	05b6                	sll	a1,a1,0xd
    80001062:	8526                	mv	a0,s1
    80001064:	fffff097          	auipc	ra,0xfffff
    80001068:	524080e7          	jalr	1316(ra) # 80000588 <mappages>
    8000106c:	02054163          	bltz	a0,8000108e <proc_pagetable+0x76>
}
    80001070:	8526                	mv	a0,s1
    80001072:	60e2                	ld	ra,24(sp)
    80001074:	6442                	ld	s0,16(sp)
    80001076:	64a2                	ld	s1,8(sp)
    80001078:	6902                	ld	s2,0(sp)
    8000107a:	6105                	add	sp,sp,32
    8000107c:	8082                	ret
    uvmfree(pagetable, 0);
    8000107e:	4581                	li	a1,0
    80001080:	8526                	mv	a0,s1
    80001082:	00000097          	auipc	ra,0x0
    80001086:	9d6080e7          	jalr	-1578(ra) # 80000a58 <uvmfree>
    return 0;
    8000108a:	4481                	li	s1,0
    8000108c:	b7d5                	j	80001070 <proc_pagetable+0x58>
    uvmunmap(pagetable, TRAMPOLINE, 1, 0);
    8000108e:	4681                	li	a3,0
    80001090:	4605                	li	a2,1
    80001092:	040005b7          	lui	a1,0x4000
    80001096:	15fd                	add	a1,a1,-1 # 3ffffff <_entry-0x7c000001>
    80001098:	05b2                	sll	a1,a1,0xc
    8000109a:	8526                	mv	a0,s1
    8000109c:	fffff097          	auipc	ra,0xfffff
    800010a0:	6d6080e7          	jalr	1750(ra) # 80000772 <uvmunmap>
    uvmfree(pagetable, 0);
    800010a4:	4581                	li	a1,0
    800010a6:	8526                	mv	a0,s1
    800010a8:	00000097          	auipc	ra,0x0
    800010ac:	9b0080e7          	jalr	-1616(ra) # 80000a58 <uvmfree>
    return 0;
    800010b0:	4481                	li	s1,0
    800010b2:	bf7d                	j	80001070 <proc_pagetable+0x58>

00000000800010b4 <proc_freepagetable>:
{
    800010b4:	1101                	add	sp,sp,-32
    800010b6:	ec06                	sd	ra,24(sp)
    800010b8:	e822                	sd	s0,16(sp)
    800010ba:	e426                	sd	s1,8(sp)
    800010bc:	e04a                	sd	s2,0(sp)
    800010be:	1000                	add	s0,sp,32
    800010c0:	84aa                	mv	s1,a0
    800010c2:	892e                	mv	s2,a1
  uvmunmap(pagetable, TRAMPOLINE, 1, 0);
    800010c4:	4681                	li	a3,0
    800010c6:	4605                	li	a2,1
    800010c8:	040005b7          	lui	a1,0x4000
    800010cc:	15fd                	add	a1,a1,-1 # 3ffffff <_entry-0x7c000001>
    800010ce:	05b2                	sll	a1,a1,0xc
    800010d0:	fffff097          	auipc	ra,0xfffff
    800010d4:	6a2080e7          	jalr	1698(ra) # 80000772 <uvmunmap>
  uvmunmap(pagetable, TRAPFRAME, 1, 0);
    800010d8:	4681                	li	a3,0
    800010da:	4605                	li	a2,1
    800010dc:	020005b7          	lui	a1,0x2000
    800010e0:	15fd                	add	a1,a1,-1 # 1ffffff <_entry-0x7e000001>
    800010e2:	05b6                	sll	a1,a1,0xd
    800010e4:	8526                	mv	a0,s1
    800010e6:	fffff097          	auipc	ra,0xfffff
    800010ea:	68c080e7          	jalr	1676(ra) # 80000772 <uvmunmap>
  uvmfree(pagetable, sz);
    800010ee:	85ca                	mv	a1,s2
    800010f0:	8526                	mv	a0,s1
    800010f2:	00000097          	auipc	ra,0x0
    800010f6:	966080e7          	jalr	-1690(ra) # 80000a58 <uvmfree>
}
    800010fa:	60e2                	ld	ra,24(sp)
    800010fc:	6442                	ld	s0,16(sp)
    800010fe:	64a2                	ld	s1,8(sp)
    80001100:	6902                	ld	s2,0(sp)
    80001102:	6105                	add	sp,sp,32
    80001104:	8082                	ret

0000000080001106 <freeproc>:
{
    80001106:	1101                	add	sp,sp,-32
    80001108:	ec06                	sd	ra,24(sp)
    8000110a:	e822                	sd	s0,16(sp)
    8000110c:	e426                	sd	s1,8(sp)
    8000110e:	1000                	add	s0,sp,32
    80001110:	84aa                	mv	s1,a0
  if(p->trapframe)
    80001112:	6d28                	ld	a0,88(a0)
    80001114:	c509                	beqz	a0,8000111e <freeproc+0x18>
    kfree((void*)p->trapframe);
    80001116:	fffff097          	auipc	ra,0xfffff
    8000111a:	f06080e7          	jalr	-250(ra) # 8000001c <kfree>
  p->trapframe = 0;
    8000111e:	0404bc23          	sd	zero,88(s1)
  if(p->pagetable)
    80001122:	68a8                	ld	a0,80(s1)
    80001124:	c511                	beqz	a0,80001130 <freeproc+0x2a>
    proc_freepagetable(p->pagetable, p->sz);
    80001126:	64ac                	ld	a1,72(s1)
    80001128:	00000097          	auipc	ra,0x0
    8000112c:	f8c080e7          	jalr	-116(ra) # 800010b4 <proc_freepagetable>
  p->pagetable = 0;
    80001130:	0404b823          	sd	zero,80(s1)
  p->sz = 0;
    80001134:	0404b423          	sd	zero,72(s1)
  p->pid = 0;
    80001138:	0204a823          	sw	zero,48(s1)
  p->parent = 0;
    8000113c:	0204bc23          	sd	zero,56(s1)
  p->name[0] = 0;
    80001140:	14048c23          	sb	zero,344(s1)
  p->chan = 0;
    80001144:	0204b023          	sd	zero,32(s1)
  p->killed = 0;
    80001148:	0204a423          	sw	zero,40(s1)
  p->xstate = 0;
    8000114c:	0204a623          	sw	zero,44(s1)
  p->state = UNUSED;
    80001150:	0004ac23          	sw	zero,24(s1)
}
    80001154:	60e2                	ld	ra,24(sp)
    80001156:	6442                	ld	s0,16(sp)
    80001158:	64a2                	ld	s1,8(sp)
    8000115a:	6105                	add	sp,sp,32
    8000115c:	8082                	ret

000000008000115e <allocproc>:
{
    8000115e:	1101                	add	sp,sp,-32
    80001160:	ec06                	sd	ra,24(sp)
    80001162:	e822                	sd	s0,16(sp)
    80001164:	e426                	sd	s1,8(sp)
    80001166:	e04a                	sd	s2,0(sp)
    80001168:	1000                	add	s0,sp,32
  for(p = proc; p < &proc[NPROC]; p++) {
    8000116a:	0000a497          	auipc	s1,0xa
    8000116e:	70648493          	add	s1,s1,1798 # 8000b870 <proc>
    80001172:	00010917          	auipc	s2,0x10
    80001176:	0fe90913          	add	s2,s2,254 # 80011270 <tickslock>
    acquire(&p->lock);
    8000117a:	8526                	mv	a0,s1
    8000117c:	00005097          	auipc	ra,0x5
    80001180:	3f0080e7          	jalr	1008(ra) # 8000656c <acquire>
    if(p->state == UNUSED) {
    80001184:	4c9c                	lw	a5,24(s1)
    80001186:	cf81                	beqz	a5,8000119e <allocproc+0x40>
      release(&p->lock);
    80001188:	8526                	mv	a0,s1
    8000118a:	00005097          	auipc	ra,0x5
    8000118e:	496080e7          	jalr	1174(ra) # 80006620 <release>
  for(p = proc; p < &proc[NPROC]; p++) {
    80001192:	16848493          	add	s1,s1,360
    80001196:	ff2492e3          	bne	s1,s2,8000117a <allocproc+0x1c>
  return 0;
    8000119a:	4481                	li	s1,0
    8000119c:	a889                	j	800011ee <allocproc+0x90>
  p->pid = allocpid();
    8000119e:	00000097          	auipc	ra,0x0
    800011a2:	e34080e7          	jalr	-460(ra) # 80000fd2 <allocpid>
    800011a6:	d888                	sw	a0,48(s1)
  p->state = USED;
    800011a8:	4785                	li	a5,1
    800011aa:	cc9c                	sw	a5,24(s1)
  if((p->trapframe = (struct trapframe *)kalloc()) == 0){
    800011ac:	fffff097          	auipc	ra,0xfffff
    800011b0:	f6e080e7          	jalr	-146(ra) # 8000011a <kalloc>
    800011b4:	892a                	mv	s2,a0
    800011b6:	eca8                	sd	a0,88(s1)
    800011b8:	c131                	beqz	a0,800011fc <allocproc+0x9e>
  p->pagetable = proc_pagetable(p);
    800011ba:	8526                	mv	a0,s1
    800011bc:	00000097          	auipc	ra,0x0
    800011c0:	e5c080e7          	jalr	-420(ra) # 80001018 <proc_pagetable>
    800011c4:	892a                	mv	s2,a0
    800011c6:	e8a8                	sd	a0,80(s1)
  if(p->pagetable == 0){
    800011c8:	c531                	beqz	a0,80001214 <allocproc+0xb6>
  memset(&p->context, 0, sizeof(p->context));
    800011ca:	07000613          	li	a2,112
    800011ce:	4581                	li	a1,0
    800011d0:	06048513          	add	a0,s1,96
    800011d4:	fffff097          	auipc	ra,0xfffff
    800011d8:	ff0080e7          	jalr	-16(ra) # 800001c4 <memset>
  p->context.ra = (uint64)forkret;
    800011dc:	00000797          	auipc	a5,0x0
    800011e0:	dac78793          	add	a5,a5,-596 # 80000f88 <forkret>
    800011e4:	f0bc                	sd	a5,96(s1)
  p->context.sp = p->kstack + PGSIZE;
    800011e6:	60bc                	ld	a5,64(s1)
    800011e8:	6705                	lui	a4,0x1
    800011ea:	97ba                	add	a5,a5,a4
    800011ec:	f4bc                	sd	a5,104(s1)
}
    800011ee:	8526                	mv	a0,s1
    800011f0:	60e2                	ld	ra,24(sp)
    800011f2:	6442                	ld	s0,16(sp)
    800011f4:	64a2                	ld	s1,8(sp)
    800011f6:	6902                	ld	s2,0(sp)
    800011f8:	6105                	add	sp,sp,32
    800011fa:	8082                	ret
    freeproc(p);
    800011fc:	8526                	mv	a0,s1
    800011fe:	00000097          	auipc	ra,0x0
    80001202:	f08080e7          	jalr	-248(ra) # 80001106 <freeproc>
    release(&p->lock);
    80001206:	8526                	mv	a0,s1
    80001208:	00005097          	auipc	ra,0x5
    8000120c:	418080e7          	jalr	1048(ra) # 80006620 <release>
    return 0;
    80001210:	84ca                	mv	s1,s2
    80001212:	bff1                	j	800011ee <allocproc+0x90>
    freeproc(p);
    80001214:	8526                	mv	a0,s1
    80001216:	00000097          	auipc	ra,0x0
    8000121a:	ef0080e7          	jalr	-272(ra) # 80001106 <freeproc>
    release(&p->lock);
    8000121e:	8526                	mv	a0,s1
    80001220:	00005097          	auipc	ra,0x5
    80001224:	400080e7          	jalr	1024(ra) # 80006620 <release>
    return 0;
    80001228:	84ca                	mv	s1,s2
    8000122a:	b7d1                	j	800011ee <allocproc+0x90>

000000008000122c <userinit>:
{
    8000122c:	1101                	add	sp,sp,-32
    8000122e:	ec06                	sd	ra,24(sp)
    80001230:	e822                	sd	s0,16(sp)
    80001232:	e426                	sd	s1,8(sp)
    80001234:	1000                	add	s0,sp,32
  p = allocproc();
    80001236:	00000097          	auipc	ra,0x0
    8000123a:	f28080e7          	jalr	-216(ra) # 8000115e <allocproc>
    8000123e:	84aa                	mv	s1,a0
  initproc = p;
    80001240:	0000a797          	auipc	a5,0xa
    80001244:	1ca7b023          	sd	a0,448(a5) # 8000b400 <initproc>
  uvmfirst(p->pagetable, initcode, sizeof(initcode));
    80001248:	03400613          	li	a2,52
    8000124c:	0000a597          	auipc	a1,0xa
    80001250:	14458593          	add	a1,a1,324 # 8000b390 <initcode>
    80001254:	6928                	ld	a0,80(a0)
    80001256:	fffff097          	auipc	ra,0xfffff
    8000125a:	61e080e7          	jalr	1566(ra) # 80000874 <uvmfirst>
  p->sz = PGSIZE;
    8000125e:	6785                	lui	a5,0x1
    80001260:	e4bc                	sd	a5,72(s1)
  p->trapframe->epc = 0;      // user program counter
    80001262:	6cb8                	ld	a4,88(s1)
    80001264:	00073c23          	sd	zero,24(a4) # 1018 <_entry-0x7fffefe8>
  p->trapframe->sp = PGSIZE;  // user stack pointer
    80001268:	6cb8                	ld	a4,88(s1)
    8000126a:	fb1c                	sd	a5,48(a4)
  safestrcpy(p->name, "initcode", sizeof(p->name));
    8000126c:	4641                	li	a2,16
    8000126e:	00007597          	auipc	a1,0x7
    80001272:	f5258593          	add	a1,a1,-174 # 800081c0 <etext+0x1c0>
    80001276:	15848513          	add	a0,s1,344
    8000127a:	fffff097          	auipc	ra,0xfffff
    8000127e:	08c080e7          	jalr	140(ra) # 80000306 <safestrcpy>
  p->cwd = namei("/");
    80001282:	00007517          	auipc	a0,0x7
    80001286:	f4e50513          	add	a0,a0,-178 # 800081d0 <etext+0x1d0>
    8000128a:	00002097          	auipc	ra,0x2
    8000128e:	366080e7          	jalr	870(ra) # 800035f0 <namei>
    80001292:	14a4b823          	sd	a0,336(s1)
  p->state = RUNNABLE;
    80001296:	478d                	li	a5,3
    80001298:	cc9c                	sw	a5,24(s1)
  release(&p->lock);
    8000129a:	8526                	mv	a0,s1
    8000129c:	00005097          	auipc	ra,0x5
    800012a0:	384080e7          	jalr	900(ra) # 80006620 <release>
}
    800012a4:	60e2                	ld	ra,24(sp)
    800012a6:	6442                	ld	s0,16(sp)
    800012a8:	64a2                	ld	s1,8(sp)
    800012aa:	6105                	add	sp,sp,32
    800012ac:	8082                	ret

00000000800012ae <growproc>:
{
    800012ae:	1101                	add	sp,sp,-32
    800012b0:	ec06                	sd	ra,24(sp)
    800012b2:	e822                	sd	s0,16(sp)
    800012b4:	e426                	sd	s1,8(sp)
    800012b6:	e04a                	sd	s2,0(sp)
    800012b8:	1000                	add	s0,sp,32
    800012ba:	892a                	mv	s2,a0
  struct proc *p = myproc();
    800012bc:	00000097          	auipc	ra,0x0
    800012c0:	c94080e7          	jalr	-876(ra) # 80000f50 <myproc>
    800012c4:	84aa                	mv	s1,a0
  sz = p->sz;
    800012c6:	652c                	ld	a1,72(a0)
  if(n > 0){
    800012c8:	01204c63          	bgtz	s2,800012e0 <growproc+0x32>
  } else if(n < 0){
    800012cc:	02094663          	bltz	s2,800012f8 <growproc+0x4a>
  p->sz = sz;
    800012d0:	e4ac                	sd	a1,72(s1)
  return 0;
    800012d2:	4501                	li	a0,0
}
    800012d4:	60e2                	ld	ra,24(sp)
    800012d6:	6442                	ld	s0,16(sp)
    800012d8:	64a2                	ld	s1,8(sp)
    800012da:	6902                	ld	s2,0(sp)
    800012dc:	6105                	add	sp,sp,32
    800012de:	8082                	ret
    if((sz = uvmalloc(p->pagetable, sz, sz + n, PTE_W)) == 0) {
    800012e0:	4691                	li	a3,4
    800012e2:	00b90633          	add	a2,s2,a1
    800012e6:	6928                	ld	a0,80(a0)
    800012e8:	fffff097          	auipc	ra,0xfffff
    800012ec:	646080e7          	jalr	1606(ra) # 8000092e <uvmalloc>
    800012f0:	85aa                	mv	a1,a0
    800012f2:	fd79                	bnez	a0,800012d0 <growproc+0x22>
      return -1;
    800012f4:	557d                	li	a0,-1
    800012f6:	bff9                	j	800012d4 <growproc+0x26>
    sz = uvmdealloc(p->pagetable, sz, sz + n);
    800012f8:	00b90633          	add	a2,s2,a1
    800012fc:	6928                	ld	a0,80(a0)
    800012fe:	fffff097          	auipc	ra,0xfffff
    80001302:	5e8080e7          	jalr	1512(ra) # 800008e6 <uvmdealloc>
    80001306:	85aa                	mv	a1,a0
    80001308:	b7e1                	j	800012d0 <growproc+0x22>

000000008000130a <fork>:
{
    8000130a:	7139                	add	sp,sp,-64
    8000130c:	fc06                	sd	ra,56(sp)
    8000130e:	f822                	sd	s0,48(sp)
    80001310:	f04a                	sd	s2,32(sp)
    80001312:	e456                	sd	s5,8(sp)
    80001314:	0080                	add	s0,sp,64
  struct proc *p = myproc();
    80001316:	00000097          	auipc	ra,0x0
    8000131a:	c3a080e7          	jalr	-966(ra) # 80000f50 <myproc>
    8000131e:	8aaa                	mv	s5,a0
  if((np = allocproc()) == 0){
    80001320:	00000097          	auipc	ra,0x0
    80001324:	e3e080e7          	jalr	-450(ra) # 8000115e <allocproc>
    80001328:	12050463          	beqz	a0,80001450 <fork+0x146>
    8000132c:	ec4e                	sd	s3,24(sp)
    8000132e:	89aa                	mv	s3,a0
  if(uvmcopy(p->pagetable, np->pagetable, p->sz) < 0){
    80001330:	048ab603          	ld	a2,72(s5)
    80001334:	692c                	ld	a1,80(a0)
    80001336:	050ab503          	ld	a0,80(s5)
    8000133a:	fffff097          	auipc	ra,0xfffff
    8000133e:	758080e7          	jalr	1880(ra) # 80000a92 <uvmcopy>
    80001342:	04054a63          	bltz	a0,80001396 <fork+0x8c>
    80001346:	f426                	sd	s1,40(sp)
    80001348:	e852                	sd	s4,16(sp)
  np->sz = p->sz;
    8000134a:	048ab783          	ld	a5,72(s5)
    8000134e:	04f9b423          	sd	a5,72(s3)
  *(np->trapframe) = *(p->trapframe);
    80001352:	058ab683          	ld	a3,88(s5)
    80001356:	87b6                	mv	a5,a3
    80001358:	0589b703          	ld	a4,88(s3)
    8000135c:	12068693          	add	a3,a3,288
    80001360:	0007b803          	ld	a6,0(a5) # 1000 <_entry-0x7ffff000>
    80001364:	6788                	ld	a0,8(a5)
    80001366:	6b8c                	ld	a1,16(a5)
    80001368:	6f90                	ld	a2,24(a5)
    8000136a:	01073023          	sd	a6,0(a4)
    8000136e:	e708                	sd	a0,8(a4)
    80001370:	eb0c                	sd	a1,16(a4)
    80001372:	ef10                	sd	a2,24(a4)
    80001374:	02078793          	add	a5,a5,32
    80001378:	02070713          	add	a4,a4,32
    8000137c:	fed792e3          	bne	a5,a3,80001360 <fork+0x56>
  np->trapframe->a0 = 0;
    80001380:	0589b783          	ld	a5,88(s3)
    80001384:	0607b823          	sd	zero,112(a5)
  for(i = 0; i < NOFILE; i++)
    80001388:	0d0a8493          	add	s1,s5,208
    8000138c:	0d098913          	add	s2,s3,208
    80001390:	150a8a13          	add	s4,s5,336
    80001394:	a015                	j	800013b8 <fork+0xae>
    freeproc(np);
    80001396:	854e                	mv	a0,s3
    80001398:	00000097          	auipc	ra,0x0
    8000139c:	d6e080e7          	jalr	-658(ra) # 80001106 <freeproc>
    release(&np->lock);
    800013a0:	854e                	mv	a0,s3
    800013a2:	00005097          	auipc	ra,0x5
    800013a6:	27e080e7          	jalr	638(ra) # 80006620 <release>
    return -1;
    800013aa:	597d                	li	s2,-1
    800013ac:	69e2                	ld	s3,24(sp)
    800013ae:	a851                	j	80001442 <fork+0x138>
  for(i = 0; i < NOFILE; i++)
    800013b0:	04a1                	add	s1,s1,8
    800013b2:	0921                	add	s2,s2,8
    800013b4:	01448b63          	beq	s1,s4,800013ca <fork+0xc0>
    if(p->ofile[i])
    800013b8:	6088                	ld	a0,0(s1)
    800013ba:	d97d                	beqz	a0,800013b0 <fork+0xa6>
      np->ofile[i] = filedup(p->ofile[i]);
    800013bc:	00003097          	auipc	ra,0x3
    800013c0:	8ac080e7          	jalr	-1876(ra) # 80003c68 <filedup>
    800013c4:	00a93023          	sd	a0,0(s2)
    800013c8:	b7e5                	j	800013b0 <fork+0xa6>
  np->cwd = idup(p->cwd);
    800013ca:	150ab503          	ld	a0,336(s5)
    800013ce:	00002097          	auipc	ra,0x2
    800013d2:	a16080e7          	jalr	-1514(ra) # 80002de4 <idup>
    800013d6:	14a9b823          	sd	a0,336(s3)
  safestrcpy(np->name, p->name, sizeof(p->name));
    800013da:	4641                	li	a2,16
    800013dc:	158a8593          	add	a1,s5,344
    800013e0:	15898513          	add	a0,s3,344
    800013e4:	fffff097          	auipc	ra,0xfffff
    800013e8:	f22080e7          	jalr	-222(ra) # 80000306 <safestrcpy>
  pid = np->pid;
    800013ec:	0309a903          	lw	s2,48(s3)
  np->mask = p->mask;
    800013f0:	034aa783          	lw	a5,52(s5)
    800013f4:	02f9aa23          	sw	a5,52(s3)
  release(&np->lock);
    800013f8:	854e                	mv	a0,s3
    800013fa:	00005097          	auipc	ra,0x5
    800013fe:	226080e7          	jalr	550(ra) # 80006620 <release>
  acquire(&wait_lock);
    80001402:	0000a497          	auipc	s1,0xa
    80001406:	05648493          	add	s1,s1,86 # 8000b458 <wait_lock>
    8000140a:	8526                	mv	a0,s1
    8000140c:	00005097          	auipc	ra,0x5
    80001410:	160080e7          	jalr	352(ra) # 8000656c <acquire>
  np->parent = p;
    80001414:	0359bc23          	sd	s5,56(s3)
  release(&wait_lock);
    80001418:	8526                	mv	a0,s1
    8000141a:	00005097          	auipc	ra,0x5
    8000141e:	206080e7          	jalr	518(ra) # 80006620 <release>
  acquire(&np->lock);
    80001422:	854e                	mv	a0,s3
    80001424:	00005097          	auipc	ra,0x5
    80001428:	148080e7          	jalr	328(ra) # 8000656c <acquire>
  np->state = RUNNABLE;
    8000142c:	478d                	li	a5,3
    8000142e:	00f9ac23          	sw	a5,24(s3)
  release(&np->lock);
    80001432:	854e                	mv	a0,s3
    80001434:	00005097          	auipc	ra,0x5
    80001438:	1ec080e7          	jalr	492(ra) # 80006620 <release>
  return pid;
    8000143c:	74a2                	ld	s1,40(sp)
    8000143e:	69e2                	ld	s3,24(sp)
    80001440:	6a42                	ld	s4,16(sp)
}
    80001442:	854a                	mv	a0,s2
    80001444:	70e2                	ld	ra,56(sp)
    80001446:	7442                	ld	s0,48(sp)
    80001448:	7902                	ld	s2,32(sp)
    8000144a:	6aa2                	ld	s5,8(sp)
    8000144c:	6121                	add	sp,sp,64
    8000144e:	8082                	ret
    return -1;
    80001450:	597d                	li	s2,-1
    80001452:	bfc5                	j	80001442 <fork+0x138>

0000000080001454 <scheduler>:
{
    80001454:	7139                	add	sp,sp,-64
    80001456:	fc06                	sd	ra,56(sp)
    80001458:	f822                	sd	s0,48(sp)
    8000145a:	f426                	sd	s1,40(sp)
    8000145c:	f04a                	sd	s2,32(sp)
    8000145e:	ec4e                	sd	s3,24(sp)
    80001460:	e852                	sd	s4,16(sp)
    80001462:	e456                	sd	s5,8(sp)
    80001464:	e05a                	sd	s6,0(sp)
    80001466:	0080                	add	s0,sp,64
    80001468:	8792                	mv	a5,tp
  int id = r_tp();
    8000146a:	2781                	sext.w	a5,a5
  c->proc = 0;
    8000146c:	00779a93          	sll	s5,a5,0x7
    80001470:	0000a717          	auipc	a4,0xa
    80001474:	fd070713          	add	a4,a4,-48 # 8000b440 <pid_lock>
    80001478:	9756                	add	a4,a4,s5
    8000147a:	02073823          	sd	zero,48(a4)
        swtch(&c->context, &p->context);
    8000147e:	0000a717          	auipc	a4,0xa
    80001482:	ffa70713          	add	a4,a4,-6 # 8000b478 <cpus+0x8>
    80001486:	9aba                	add	s5,s5,a4
      if(p->state == RUNNABLE) {
    80001488:	498d                	li	s3,3
        p->state = RUNNING;
    8000148a:	4b11                	li	s6,4
        c->proc = p;
    8000148c:	079e                	sll	a5,a5,0x7
    8000148e:	0000aa17          	auipc	s4,0xa
    80001492:	fb2a0a13          	add	s4,s4,-78 # 8000b440 <pid_lock>
    80001496:	9a3e                	add	s4,s4,a5
    for(p = proc; p < &proc[NPROC]; p++) {
    80001498:	00010917          	auipc	s2,0x10
    8000149c:	dd890913          	add	s2,s2,-552 # 80011270 <tickslock>
  asm volatile("csrr %0, sstatus" : "=r" (x) );
    800014a0:	100027f3          	csrr	a5,sstatus
  w_sstatus(r_sstatus() | SSTATUS_SIE);
    800014a4:	0027e793          	or	a5,a5,2
  asm volatile("csrw sstatus, %0" : : "r" (x));
    800014a8:	10079073          	csrw	sstatus,a5
    800014ac:	0000a497          	auipc	s1,0xa
    800014b0:	3c448493          	add	s1,s1,964 # 8000b870 <proc>
    800014b4:	a811                	j	800014c8 <scheduler+0x74>
      release(&p->lock);
    800014b6:	8526                	mv	a0,s1
    800014b8:	00005097          	auipc	ra,0x5
    800014bc:	168080e7          	jalr	360(ra) # 80006620 <release>
    for(p = proc; p < &proc[NPROC]; p++) {
    800014c0:	16848493          	add	s1,s1,360
    800014c4:	fd248ee3          	beq	s1,s2,800014a0 <scheduler+0x4c>
      acquire(&p->lock);
    800014c8:	8526                	mv	a0,s1
    800014ca:	00005097          	auipc	ra,0x5
    800014ce:	0a2080e7          	jalr	162(ra) # 8000656c <acquire>
      if(p->state == RUNNABLE) {
    800014d2:	4c9c                	lw	a5,24(s1)
    800014d4:	ff3791e3          	bne	a5,s3,800014b6 <scheduler+0x62>
        p->state = RUNNING;
    800014d8:	0164ac23          	sw	s6,24(s1)
        c->proc = p;
    800014dc:	029a3823          	sd	s1,48(s4)
        swtch(&c->context, &p->context);
    800014e0:	06048593          	add	a1,s1,96
    800014e4:	8556                	mv	a0,s5
    800014e6:	00000097          	auipc	ra,0x0
    800014ea:	6b2080e7          	jalr	1714(ra) # 80001b98 <swtch>
        c->proc = 0;
    800014ee:	020a3823          	sd	zero,48(s4)
    800014f2:	b7d1                	j	800014b6 <scheduler+0x62>

00000000800014f4 <sched>:
{
    800014f4:	7179                	add	sp,sp,-48
    800014f6:	f406                	sd	ra,40(sp)
    800014f8:	f022                	sd	s0,32(sp)
    800014fa:	ec26                	sd	s1,24(sp)
    800014fc:	e84a                	sd	s2,16(sp)
    800014fe:	e44e                	sd	s3,8(sp)
    80001500:	1800                	add	s0,sp,48
  struct proc *p = myproc();
    80001502:	00000097          	auipc	ra,0x0
    80001506:	a4e080e7          	jalr	-1458(ra) # 80000f50 <myproc>
    8000150a:	84aa                	mv	s1,a0
  if(!holding(&p->lock))
    8000150c:	00005097          	auipc	ra,0x5
    80001510:	fe6080e7          	jalr	-26(ra) # 800064f2 <holding>
    80001514:	c93d                	beqz	a0,8000158a <sched+0x96>
  asm volatile("mv %0, tp" : "=r" (x) );
    80001516:	8792                	mv	a5,tp
  if(mycpu()->noff != 1)
    80001518:	2781                	sext.w	a5,a5
    8000151a:	079e                	sll	a5,a5,0x7
    8000151c:	0000a717          	auipc	a4,0xa
    80001520:	f2470713          	add	a4,a4,-220 # 8000b440 <pid_lock>
    80001524:	97ba                	add	a5,a5,a4
    80001526:	0a87a703          	lw	a4,168(a5)
    8000152a:	4785                	li	a5,1
    8000152c:	06f71763          	bne	a4,a5,8000159a <sched+0xa6>
  if(p->state == RUNNING)
    80001530:	4c98                	lw	a4,24(s1)
    80001532:	4791                	li	a5,4
    80001534:	06f70b63          	beq	a4,a5,800015aa <sched+0xb6>
  asm volatile("csrr %0, sstatus" : "=r" (x) );
    80001538:	100027f3          	csrr	a5,sstatus
  return (x & SSTATUS_SIE) != 0;
    8000153c:	8b89                	and	a5,a5,2
  if(intr_get())
    8000153e:	efb5                	bnez	a5,800015ba <sched+0xc6>
  asm volatile("mv %0, tp" : "=r" (x) );
    80001540:	8792                	mv	a5,tp
  intena = mycpu()->intena;
    80001542:	0000a917          	auipc	s2,0xa
    80001546:	efe90913          	add	s2,s2,-258 # 8000b440 <pid_lock>
    8000154a:	2781                	sext.w	a5,a5
    8000154c:	079e                	sll	a5,a5,0x7
    8000154e:	97ca                	add	a5,a5,s2
    80001550:	0ac7a983          	lw	s3,172(a5)
    80001554:	8792                	mv	a5,tp
  swtch(&p->context, &mycpu()->context);
    80001556:	2781                	sext.w	a5,a5
    80001558:	079e                	sll	a5,a5,0x7
    8000155a:	0000a597          	auipc	a1,0xa
    8000155e:	f1e58593          	add	a1,a1,-226 # 8000b478 <cpus+0x8>
    80001562:	95be                	add	a1,a1,a5
    80001564:	06048513          	add	a0,s1,96
    80001568:	00000097          	auipc	ra,0x0
    8000156c:	630080e7          	jalr	1584(ra) # 80001b98 <swtch>
    80001570:	8792                	mv	a5,tp
  mycpu()->intena = intena;
    80001572:	2781                	sext.w	a5,a5
    80001574:	079e                	sll	a5,a5,0x7
    80001576:	993e                	add	s2,s2,a5
    80001578:	0b392623          	sw	s3,172(s2)
}
    8000157c:	70a2                	ld	ra,40(sp)
    8000157e:	7402                	ld	s0,32(sp)
    80001580:	64e2                	ld	s1,24(sp)
    80001582:	6942                	ld	s2,16(sp)
    80001584:	69a2                	ld	s3,8(sp)
    80001586:	6145                	add	sp,sp,48
    80001588:	8082                	ret
    panic("sched p->lock");
    8000158a:	00007517          	auipc	a0,0x7
    8000158e:	c4e50513          	add	a0,a0,-946 # 800081d8 <etext+0x1d8>
    80001592:	00005097          	auipc	ra,0x5
    80001596:	a60080e7          	jalr	-1440(ra) # 80005ff2 <panic>
    panic("sched locks");
    8000159a:	00007517          	auipc	a0,0x7
    8000159e:	c4e50513          	add	a0,a0,-946 # 800081e8 <etext+0x1e8>
    800015a2:	00005097          	auipc	ra,0x5
    800015a6:	a50080e7          	jalr	-1456(ra) # 80005ff2 <panic>
    panic("sched running");
    800015aa:	00007517          	auipc	a0,0x7
    800015ae:	c4e50513          	add	a0,a0,-946 # 800081f8 <etext+0x1f8>
    800015b2:	00005097          	auipc	ra,0x5
    800015b6:	a40080e7          	jalr	-1472(ra) # 80005ff2 <panic>
    panic("sched interruptible");
    800015ba:	00007517          	auipc	a0,0x7
    800015be:	c4e50513          	add	a0,a0,-946 # 80008208 <etext+0x208>
    800015c2:	00005097          	auipc	ra,0x5
    800015c6:	a30080e7          	jalr	-1488(ra) # 80005ff2 <panic>

00000000800015ca <yield>:
{
    800015ca:	1101                	add	sp,sp,-32
    800015cc:	ec06                	sd	ra,24(sp)
    800015ce:	e822                	sd	s0,16(sp)
    800015d0:	e426                	sd	s1,8(sp)
    800015d2:	1000                	add	s0,sp,32
  struct proc *p = myproc();
    800015d4:	00000097          	auipc	ra,0x0
    800015d8:	97c080e7          	jalr	-1668(ra) # 80000f50 <myproc>
    800015dc:	84aa                	mv	s1,a0
  acquire(&p->lock);
    800015de:	00005097          	auipc	ra,0x5
    800015e2:	f8e080e7          	jalr	-114(ra) # 8000656c <acquire>
  p->state = RUNNABLE;
    800015e6:	478d                	li	a5,3
    800015e8:	cc9c                	sw	a5,24(s1)
  sched();
    800015ea:	00000097          	auipc	ra,0x0
    800015ee:	f0a080e7          	jalr	-246(ra) # 800014f4 <sched>
  release(&p->lock);
    800015f2:	8526                	mv	a0,s1
    800015f4:	00005097          	auipc	ra,0x5
    800015f8:	02c080e7          	jalr	44(ra) # 80006620 <release>
}
    800015fc:	60e2                	ld	ra,24(sp)
    800015fe:	6442                	ld	s0,16(sp)
    80001600:	64a2                	ld	s1,8(sp)
    80001602:	6105                	add	sp,sp,32
    80001604:	8082                	ret

0000000080001606 <sleep>:

// Atomically release lock and sleep on chan.
// Reacquires lock when awakened.
void
sleep(void *chan, struct spinlock *lk)
{
    80001606:	7179                	add	sp,sp,-48
    80001608:	f406                	sd	ra,40(sp)
    8000160a:	f022                	sd	s0,32(sp)
    8000160c:	ec26                	sd	s1,24(sp)
    8000160e:	e84a                	sd	s2,16(sp)
    80001610:	e44e                	sd	s3,8(sp)
    80001612:	1800                	add	s0,sp,48
    80001614:	89aa                	mv	s3,a0
    80001616:	892e                	mv	s2,a1
  struct proc *p = myproc();
    80001618:	00000097          	auipc	ra,0x0
    8000161c:	938080e7          	jalr	-1736(ra) # 80000f50 <myproc>
    80001620:	84aa                	mv	s1,a0
  // Once we hold p->lock, we can be
  // guaranteed that we won't miss any wakeup
  // (wakeup locks p->lock),
  // so it's okay to release lk.

  acquire(&p->lock);  //DOC: sleeplock1
    80001622:	00005097          	auipc	ra,0x5
    80001626:	f4a080e7          	jalr	-182(ra) # 8000656c <acquire>
  release(lk);
    8000162a:	854a                	mv	a0,s2
    8000162c:	00005097          	auipc	ra,0x5
    80001630:	ff4080e7          	jalr	-12(ra) # 80006620 <release>

  // Go to sleep.
  p->chan = chan;
    80001634:	0334b023          	sd	s3,32(s1)
  p->state = SLEEPING;
    80001638:	4789                	li	a5,2
    8000163a:	cc9c                	sw	a5,24(s1)

  sched();
    8000163c:	00000097          	auipc	ra,0x0
    80001640:	eb8080e7          	jalr	-328(ra) # 800014f4 <sched>

  // Tidy up.
  p->chan = 0;
    80001644:	0204b023          	sd	zero,32(s1)

  // Reacquire original lock.
  release(&p->lock);
    80001648:	8526                	mv	a0,s1
    8000164a:	00005097          	auipc	ra,0x5
    8000164e:	fd6080e7          	jalr	-42(ra) # 80006620 <release>
  acquire(lk);
    80001652:	854a                	mv	a0,s2
    80001654:	00005097          	auipc	ra,0x5
    80001658:	f18080e7          	jalr	-232(ra) # 8000656c <acquire>
}
    8000165c:	70a2                	ld	ra,40(sp)
    8000165e:	7402                	ld	s0,32(sp)
    80001660:	64e2                	ld	s1,24(sp)
    80001662:	6942                	ld	s2,16(sp)
    80001664:	69a2                	ld	s3,8(sp)
    80001666:	6145                	add	sp,sp,48
    80001668:	8082                	ret

000000008000166a <wakeup>:

// Wake up all processes sleeping on chan.
// Must be called without any p->lock.
void
wakeup(void *chan)
{
    8000166a:	7139                	add	sp,sp,-64
    8000166c:	fc06                	sd	ra,56(sp)
    8000166e:	f822                	sd	s0,48(sp)
    80001670:	f426                	sd	s1,40(sp)
    80001672:	f04a                	sd	s2,32(sp)
    80001674:	ec4e                	sd	s3,24(sp)
    80001676:	e852                	sd	s4,16(sp)
    80001678:	e456                	sd	s5,8(sp)
    8000167a:	0080                	add	s0,sp,64
    8000167c:	8a2a                	mv	s4,a0
  struct proc *p;

  for(p = proc; p < &proc[NPROC]; p++) {
    8000167e:	0000a497          	auipc	s1,0xa
    80001682:	1f248493          	add	s1,s1,498 # 8000b870 <proc>
    if(p != myproc()){
      acquire(&p->lock);
      if(p->state == SLEEPING && p->chan == chan) {
    80001686:	4989                	li	s3,2
        p->state = RUNNABLE;
    80001688:	4a8d                	li	s5,3
  for(p = proc; p < &proc[NPROC]; p++) {
    8000168a:	00010917          	auipc	s2,0x10
    8000168e:	be690913          	add	s2,s2,-1050 # 80011270 <tickslock>
    80001692:	a811                	j	800016a6 <wakeup+0x3c>
      }
      release(&p->lock);
    80001694:	8526                	mv	a0,s1
    80001696:	00005097          	auipc	ra,0x5
    8000169a:	f8a080e7          	jalr	-118(ra) # 80006620 <release>
  for(p = proc; p < &proc[NPROC]; p++) {
    8000169e:	16848493          	add	s1,s1,360
    800016a2:	03248663          	beq	s1,s2,800016ce <wakeup+0x64>
    if(p != myproc()){
    800016a6:	00000097          	auipc	ra,0x0
    800016aa:	8aa080e7          	jalr	-1878(ra) # 80000f50 <myproc>
    800016ae:	fea488e3          	beq	s1,a0,8000169e <wakeup+0x34>
      acquire(&p->lock);
    800016b2:	8526                	mv	a0,s1
    800016b4:	00005097          	auipc	ra,0x5
    800016b8:	eb8080e7          	jalr	-328(ra) # 8000656c <acquire>
      if(p->state == SLEEPING && p->chan == chan) {
    800016bc:	4c9c                	lw	a5,24(s1)
    800016be:	fd379be3          	bne	a5,s3,80001694 <wakeup+0x2a>
    800016c2:	709c                	ld	a5,32(s1)
    800016c4:	fd4798e3          	bne	a5,s4,80001694 <wakeup+0x2a>
        p->state = RUNNABLE;
    800016c8:	0154ac23          	sw	s5,24(s1)
    800016cc:	b7e1                	j	80001694 <wakeup+0x2a>
    }
  }
}
    800016ce:	70e2                	ld	ra,56(sp)
    800016d0:	7442                	ld	s0,48(sp)
    800016d2:	74a2                	ld	s1,40(sp)
    800016d4:	7902                	ld	s2,32(sp)
    800016d6:	69e2                	ld	s3,24(sp)
    800016d8:	6a42                	ld	s4,16(sp)
    800016da:	6aa2                	ld	s5,8(sp)
    800016dc:	6121                	add	sp,sp,64
    800016de:	8082                	ret

00000000800016e0 <reparent>:
{
    800016e0:	7179                	add	sp,sp,-48
    800016e2:	f406                	sd	ra,40(sp)
    800016e4:	f022                	sd	s0,32(sp)
    800016e6:	ec26                	sd	s1,24(sp)
    800016e8:	e84a                	sd	s2,16(sp)
    800016ea:	e44e                	sd	s3,8(sp)
    800016ec:	e052                	sd	s4,0(sp)
    800016ee:	1800                	add	s0,sp,48
    800016f0:	892a                	mv	s2,a0
  for(pp = proc; pp < &proc[NPROC]; pp++){
    800016f2:	0000a497          	auipc	s1,0xa
    800016f6:	17e48493          	add	s1,s1,382 # 8000b870 <proc>
      pp->parent = initproc;
    800016fa:	0000aa17          	auipc	s4,0xa
    800016fe:	d06a0a13          	add	s4,s4,-762 # 8000b400 <initproc>
  for(pp = proc; pp < &proc[NPROC]; pp++){
    80001702:	00010997          	auipc	s3,0x10
    80001706:	b6e98993          	add	s3,s3,-1170 # 80011270 <tickslock>
    8000170a:	a029                	j	80001714 <reparent+0x34>
    8000170c:	16848493          	add	s1,s1,360
    80001710:	01348d63          	beq	s1,s3,8000172a <reparent+0x4a>
    if(pp->parent == p){
    80001714:	7c9c                	ld	a5,56(s1)
    80001716:	ff279be3          	bne	a5,s2,8000170c <reparent+0x2c>
      pp->parent = initproc;
    8000171a:	000a3503          	ld	a0,0(s4)
    8000171e:	fc88                	sd	a0,56(s1)
      wakeup(initproc);
    80001720:	00000097          	auipc	ra,0x0
    80001724:	f4a080e7          	jalr	-182(ra) # 8000166a <wakeup>
    80001728:	b7d5                	j	8000170c <reparent+0x2c>
}
    8000172a:	70a2                	ld	ra,40(sp)
    8000172c:	7402                	ld	s0,32(sp)
    8000172e:	64e2                	ld	s1,24(sp)
    80001730:	6942                	ld	s2,16(sp)
    80001732:	69a2                	ld	s3,8(sp)
    80001734:	6a02                	ld	s4,0(sp)
    80001736:	6145                	add	sp,sp,48
    80001738:	8082                	ret

000000008000173a <exit>:
{
    8000173a:	7179                	add	sp,sp,-48
    8000173c:	f406                	sd	ra,40(sp)
    8000173e:	f022                	sd	s0,32(sp)
    80001740:	ec26                	sd	s1,24(sp)
    80001742:	e84a                	sd	s2,16(sp)
    80001744:	e44e                	sd	s3,8(sp)
    80001746:	e052                	sd	s4,0(sp)
    80001748:	1800                	add	s0,sp,48
    8000174a:	8a2a                	mv	s4,a0
  struct proc *p = myproc();
    8000174c:	00000097          	auipc	ra,0x0
    80001750:	804080e7          	jalr	-2044(ra) # 80000f50 <myproc>
    80001754:	89aa                	mv	s3,a0
  if(p == initproc)
    80001756:	0000a797          	auipc	a5,0xa
    8000175a:	caa7b783          	ld	a5,-854(a5) # 8000b400 <initproc>
    8000175e:	0d050493          	add	s1,a0,208
    80001762:	15050913          	add	s2,a0,336
    80001766:	02a79363          	bne	a5,a0,8000178c <exit+0x52>
    panic("init exiting");
    8000176a:	00007517          	auipc	a0,0x7
    8000176e:	ab650513          	add	a0,a0,-1354 # 80008220 <etext+0x220>
    80001772:	00005097          	auipc	ra,0x5
    80001776:	880080e7          	jalr	-1920(ra) # 80005ff2 <panic>
      fileclose(f);
    8000177a:	00002097          	auipc	ra,0x2
    8000177e:	540080e7          	jalr	1344(ra) # 80003cba <fileclose>
      p->ofile[fd] = 0;
    80001782:	0004b023          	sd	zero,0(s1)
  for(int fd = 0; fd < NOFILE; fd++){
    80001786:	04a1                	add	s1,s1,8
    80001788:	01248563          	beq	s1,s2,80001792 <exit+0x58>
    if(p->ofile[fd]){
    8000178c:	6088                	ld	a0,0(s1)
    8000178e:	f575                	bnez	a0,8000177a <exit+0x40>
    80001790:	bfdd                	j	80001786 <exit+0x4c>
  begin_op();
    80001792:	00002097          	auipc	ra,0x2
    80001796:	05e080e7          	jalr	94(ra) # 800037f0 <begin_op>
  iput(p->cwd);
    8000179a:	1509b503          	ld	a0,336(s3)
    8000179e:	00002097          	auipc	ra,0x2
    800017a2:	842080e7          	jalr	-1982(ra) # 80002fe0 <iput>
  end_op();
    800017a6:	00002097          	auipc	ra,0x2
    800017aa:	0c4080e7          	jalr	196(ra) # 8000386a <end_op>
  p->cwd = 0;
    800017ae:	1409b823          	sd	zero,336(s3)
  acquire(&wait_lock);
    800017b2:	0000a497          	auipc	s1,0xa
    800017b6:	ca648493          	add	s1,s1,-858 # 8000b458 <wait_lock>
    800017ba:	8526                	mv	a0,s1
    800017bc:	00005097          	auipc	ra,0x5
    800017c0:	db0080e7          	jalr	-592(ra) # 8000656c <acquire>
  reparent(p);
    800017c4:	854e                	mv	a0,s3
    800017c6:	00000097          	auipc	ra,0x0
    800017ca:	f1a080e7          	jalr	-230(ra) # 800016e0 <reparent>
  wakeup(p->parent);
    800017ce:	0389b503          	ld	a0,56(s3)
    800017d2:	00000097          	auipc	ra,0x0
    800017d6:	e98080e7          	jalr	-360(ra) # 8000166a <wakeup>
  acquire(&p->lock);
    800017da:	854e                	mv	a0,s3
    800017dc:	00005097          	auipc	ra,0x5
    800017e0:	d90080e7          	jalr	-624(ra) # 8000656c <acquire>
  p->xstate = status;
    800017e4:	0349a623          	sw	s4,44(s3)
  p->state = ZOMBIE;
    800017e8:	4795                	li	a5,5
    800017ea:	00f9ac23          	sw	a5,24(s3)
  release(&wait_lock);
    800017ee:	8526                	mv	a0,s1
    800017f0:	00005097          	auipc	ra,0x5
    800017f4:	e30080e7          	jalr	-464(ra) # 80006620 <release>
  sched();
    800017f8:	00000097          	auipc	ra,0x0
    800017fc:	cfc080e7          	jalr	-772(ra) # 800014f4 <sched>
  panic("zombie exit");
    80001800:	00007517          	auipc	a0,0x7
    80001804:	a3050513          	add	a0,a0,-1488 # 80008230 <etext+0x230>
    80001808:	00004097          	auipc	ra,0x4
    8000180c:	7ea080e7          	jalr	2026(ra) # 80005ff2 <panic>

0000000080001810 <kill>:
// Kill the process with the given pid.
// The victim won't exit until it tries to return
// to user space (see usertrap() in trap.c).
int
kill(int pid)
{
    80001810:	7179                	add	sp,sp,-48
    80001812:	f406                	sd	ra,40(sp)
    80001814:	f022                	sd	s0,32(sp)
    80001816:	ec26                	sd	s1,24(sp)
    80001818:	e84a                	sd	s2,16(sp)
    8000181a:	e44e                	sd	s3,8(sp)
    8000181c:	1800                	add	s0,sp,48
    8000181e:	892a                	mv	s2,a0
  struct proc *p;

  for(p = proc; p < &proc[NPROC]; p++){
    80001820:	0000a497          	auipc	s1,0xa
    80001824:	05048493          	add	s1,s1,80 # 8000b870 <proc>
    80001828:	00010997          	auipc	s3,0x10
    8000182c:	a4898993          	add	s3,s3,-1464 # 80011270 <tickslock>
    acquire(&p->lock);
    80001830:	8526                	mv	a0,s1
    80001832:	00005097          	auipc	ra,0x5
    80001836:	d3a080e7          	jalr	-710(ra) # 8000656c <acquire>
    if(p->pid == pid){
    8000183a:	589c                	lw	a5,48(s1)
    8000183c:	01278d63          	beq	a5,s2,80001856 <kill+0x46>
        p->state = RUNNABLE;
      }
      release(&p->lock);
      return 0;
    }
    release(&p->lock);
    80001840:	8526                	mv	a0,s1
    80001842:	00005097          	auipc	ra,0x5
    80001846:	dde080e7          	jalr	-546(ra) # 80006620 <release>
  for(p = proc; p < &proc[NPROC]; p++){
    8000184a:	16848493          	add	s1,s1,360
    8000184e:	ff3491e3          	bne	s1,s3,80001830 <kill+0x20>
  }
  return -1;
    80001852:	557d                	li	a0,-1
    80001854:	a829                	j	8000186e <kill+0x5e>
      p->killed = 1;
    80001856:	4785                	li	a5,1
    80001858:	d49c                	sw	a5,40(s1)
      if(p->state == SLEEPING){
    8000185a:	4c98                	lw	a4,24(s1)
    8000185c:	4789                	li	a5,2
    8000185e:	00f70f63          	beq	a4,a5,8000187c <kill+0x6c>
      release(&p->lock);
    80001862:	8526                	mv	a0,s1
    80001864:	00005097          	auipc	ra,0x5
    80001868:	dbc080e7          	jalr	-580(ra) # 80006620 <release>
      return 0;
    8000186c:	4501                	li	a0,0
}
    8000186e:	70a2                	ld	ra,40(sp)
    80001870:	7402                	ld	s0,32(sp)
    80001872:	64e2                	ld	s1,24(sp)
    80001874:	6942                	ld	s2,16(sp)
    80001876:	69a2                	ld	s3,8(sp)
    80001878:	6145                	add	sp,sp,48
    8000187a:	8082                	ret
        p->state = RUNNABLE;
    8000187c:	478d                	li	a5,3
    8000187e:	cc9c                	sw	a5,24(s1)
    80001880:	b7cd                	j	80001862 <kill+0x52>

0000000080001882 <setkilled>:

void
setkilled(struct proc *p)
{
    80001882:	1101                	add	sp,sp,-32
    80001884:	ec06                	sd	ra,24(sp)
    80001886:	e822                	sd	s0,16(sp)
    80001888:	e426                	sd	s1,8(sp)
    8000188a:	1000                	add	s0,sp,32
    8000188c:	84aa                	mv	s1,a0
  acquire(&p->lock);
    8000188e:	00005097          	auipc	ra,0x5
    80001892:	cde080e7          	jalr	-802(ra) # 8000656c <acquire>
  p->killed = 1;
    80001896:	4785                	li	a5,1
    80001898:	d49c                	sw	a5,40(s1)
  release(&p->lock);
    8000189a:	8526                	mv	a0,s1
    8000189c:	00005097          	auipc	ra,0x5
    800018a0:	d84080e7          	jalr	-636(ra) # 80006620 <release>
}
    800018a4:	60e2                	ld	ra,24(sp)
    800018a6:	6442                	ld	s0,16(sp)
    800018a8:	64a2                	ld	s1,8(sp)
    800018aa:	6105                	add	sp,sp,32
    800018ac:	8082                	ret

00000000800018ae <killed>:

int
killed(struct proc *p)
{
    800018ae:	1101                	add	sp,sp,-32
    800018b0:	ec06                	sd	ra,24(sp)
    800018b2:	e822                	sd	s0,16(sp)
    800018b4:	e426                	sd	s1,8(sp)
    800018b6:	e04a                	sd	s2,0(sp)
    800018b8:	1000                	add	s0,sp,32
    800018ba:	84aa                	mv	s1,a0
  int k;
  
  acquire(&p->lock);
    800018bc:	00005097          	auipc	ra,0x5
    800018c0:	cb0080e7          	jalr	-848(ra) # 8000656c <acquire>
  k = p->killed;
    800018c4:	0284a903          	lw	s2,40(s1)
  release(&p->lock);
    800018c8:	8526                	mv	a0,s1
    800018ca:	00005097          	auipc	ra,0x5
    800018ce:	d56080e7          	jalr	-682(ra) # 80006620 <release>
  return k;
}
    800018d2:	854a                	mv	a0,s2
    800018d4:	60e2                	ld	ra,24(sp)
    800018d6:	6442                	ld	s0,16(sp)
    800018d8:	64a2                	ld	s1,8(sp)
    800018da:	6902                	ld	s2,0(sp)
    800018dc:	6105                	add	sp,sp,32
    800018de:	8082                	ret

00000000800018e0 <wait>:
{
    800018e0:	715d                	add	sp,sp,-80
    800018e2:	e486                	sd	ra,72(sp)
    800018e4:	e0a2                	sd	s0,64(sp)
    800018e6:	fc26                	sd	s1,56(sp)
    800018e8:	f84a                	sd	s2,48(sp)
    800018ea:	f44e                	sd	s3,40(sp)
    800018ec:	f052                	sd	s4,32(sp)
    800018ee:	ec56                	sd	s5,24(sp)
    800018f0:	e85a                	sd	s6,16(sp)
    800018f2:	e45e                	sd	s7,8(sp)
    800018f4:	e062                	sd	s8,0(sp)
    800018f6:	0880                	add	s0,sp,80
    800018f8:	8b2a                	mv	s6,a0
  struct proc *p = myproc();
    800018fa:	fffff097          	auipc	ra,0xfffff
    800018fe:	656080e7          	jalr	1622(ra) # 80000f50 <myproc>
    80001902:	892a                	mv	s2,a0
  acquire(&wait_lock);
    80001904:	0000a517          	auipc	a0,0xa
    80001908:	b5450513          	add	a0,a0,-1196 # 8000b458 <wait_lock>
    8000190c:	00005097          	auipc	ra,0x5
    80001910:	c60080e7          	jalr	-928(ra) # 8000656c <acquire>
    havekids = 0;
    80001914:	4b81                	li	s7,0
        if(pp->state == ZOMBIE){
    80001916:	4a15                	li	s4,5
        havekids = 1;
    80001918:	4a85                	li	s5,1
    for(pp = proc; pp < &proc[NPROC]; pp++){
    8000191a:	00010997          	auipc	s3,0x10
    8000191e:	95698993          	add	s3,s3,-1706 # 80011270 <tickslock>
    sleep(p, &wait_lock);  //DOC: wait-sleep
    80001922:	0000ac17          	auipc	s8,0xa
    80001926:	b36c0c13          	add	s8,s8,-1226 # 8000b458 <wait_lock>
    8000192a:	a0d1                	j	800019ee <wait+0x10e>
          pid = pp->pid;
    8000192c:	0304a983          	lw	s3,48(s1)
          if(addr != 0 && copyout(p->pagetable, addr, (char *)&pp->xstate,
    80001930:	000b0e63          	beqz	s6,8000194c <wait+0x6c>
    80001934:	4691                	li	a3,4
    80001936:	02c48613          	add	a2,s1,44
    8000193a:	85da                	mv	a1,s6
    8000193c:	05093503          	ld	a0,80(s2)
    80001940:	fffff097          	auipc	ra,0xfffff
    80001944:	256080e7          	jalr	598(ra) # 80000b96 <copyout>
    80001948:	04054163          	bltz	a0,8000198a <wait+0xaa>
          freeproc(pp);
    8000194c:	8526                	mv	a0,s1
    8000194e:	fffff097          	auipc	ra,0xfffff
    80001952:	7b8080e7          	jalr	1976(ra) # 80001106 <freeproc>
          release(&pp->lock);
    80001956:	8526                	mv	a0,s1
    80001958:	00005097          	auipc	ra,0x5
    8000195c:	cc8080e7          	jalr	-824(ra) # 80006620 <release>
          release(&wait_lock);
    80001960:	0000a517          	auipc	a0,0xa
    80001964:	af850513          	add	a0,a0,-1288 # 8000b458 <wait_lock>
    80001968:	00005097          	auipc	ra,0x5
    8000196c:	cb8080e7          	jalr	-840(ra) # 80006620 <release>
}
    80001970:	854e                	mv	a0,s3
    80001972:	60a6                	ld	ra,72(sp)
    80001974:	6406                	ld	s0,64(sp)
    80001976:	74e2                	ld	s1,56(sp)
    80001978:	7942                	ld	s2,48(sp)
    8000197a:	79a2                	ld	s3,40(sp)
    8000197c:	7a02                	ld	s4,32(sp)
    8000197e:	6ae2                	ld	s5,24(sp)
    80001980:	6b42                	ld	s6,16(sp)
    80001982:	6ba2                	ld	s7,8(sp)
    80001984:	6c02                	ld	s8,0(sp)
    80001986:	6161                	add	sp,sp,80
    80001988:	8082                	ret
            release(&pp->lock);
    8000198a:	8526                	mv	a0,s1
    8000198c:	00005097          	auipc	ra,0x5
    80001990:	c94080e7          	jalr	-876(ra) # 80006620 <release>
            release(&wait_lock);
    80001994:	0000a517          	auipc	a0,0xa
    80001998:	ac450513          	add	a0,a0,-1340 # 8000b458 <wait_lock>
    8000199c:	00005097          	auipc	ra,0x5
    800019a0:	c84080e7          	jalr	-892(ra) # 80006620 <release>
            return -1;
    800019a4:	59fd                	li	s3,-1
    800019a6:	b7e9                	j	80001970 <wait+0x90>
    for(pp = proc; pp < &proc[NPROC]; pp++){
    800019a8:	16848493          	add	s1,s1,360
    800019ac:	03348463          	beq	s1,s3,800019d4 <wait+0xf4>
      if(pp->parent == p){
    800019b0:	7c9c                	ld	a5,56(s1)
    800019b2:	ff279be3          	bne	a5,s2,800019a8 <wait+0xc8>
        acquire(&pp->lock);
    800019b6:	8526                	mv	a0,s1
    800019b8:	00005097          	auipc	ra,0x5
    800019bc:	bb4080e7          	jalr	-1100(ra) # 8000656c <acquire>
        if(pp->state == ZOMBIE){
    800019c0:	4c9c                	lw	a5,24(s1)
    800019c2:	f74785e3          	beq	a5,s4,8000192c <wait+0x4c>
        release(&pp->lock);
    800019c6:	8526                	mv	a0,s1
    800019c8:	00005097          	auipc	ra,0x5
    800019cc:	c58080e7          	jalr	-936(ra) # 80006620 <release>
        havekids = 1;
    800019d0:	8756                	mv	a4,s5
    800019d2:	bfd9                	j	800019a8 <wait+0xc8>
    if(!havekids || killed(p)){
    800019d4:	c31d                	beqz	a4,800019fa <wait+0x11a>
    800019d6:	854a                	mv	a0,s2
    800019d8:	00000097          	auipc	ra,0x0
    800019dc:	ed6080e7          	jalr	-298(ra) # 800018ae <killed>
    800019e0:	ed09                	bnez	a0,800019fa <wait+0x11a>
    sleep(p, &wait_lock);  //DOC: wait-sleep
    800019e2:	85e2                	mv	a1,s8
    800019e4:	854a                	mv	a0,s2
    800019e6:	00000097          	auipc	ra,0x0
    800019ea:	c20080e7          	jalr	-992(ra) # 80001606 <sleep>
    havekids = 0;
    800019ee:	875e                	mv	a4,s7
    for(pp = proc; pp < &proc[NPROC]; pp++){
    800019f0:	0000a497          	auipc	s1,0xa
    800019f4:	e8048493          	add	s1,s1,-384 # 8000b870 <proc>
    800019f8:	bf65                	j	800019b0 <wait+0xd0>
      release(&wait_lock);
    800019fa:	0000a517          	auipc	a0,0xa
    800019fe:	a5e50513          	add	a0,a0,-1442 # 8000b458 <wait_lock>
    80001a02:	00005097          	auipc	ra,0x5
    80001a06:	c1e080e7          	jalr	-994(ra) # 80006620 <release>
      return -1;
    80001a0a:	59fd                	li	s3,-1
    80001a0c:	b795                	j	80001970 <wait+0x90>

0000000080001a0e <either_copyout>:
// Copy to either a user address, or kernel address,
// depending on usr_dst.
// Returns 0 on success, -1 on error.
int
either_copyout(int user_dst, uint64 dst, void *src, uint64 len)
{
    80001a0e:	7179                	add	sp,sp,-48
    80001a10:	f406                	sd	ra,40(sp)
    80001a12:	f022                	sd	s0,32(sp)
    80001a14:	ec26                	sd	s1,24(sp)
    80001a16:	e84a                	sd	s2,16(sp)
    80001a18:	e44e                	sd	s3,8(sp)
    80001a1a:	e052                	sd	s4,0(sp)
    80001a1c:	1800                	add	s0,sp,48
    80001a1e:	84aa                	mv	s1,a0
    80001a20:	892e                	mv	s2,a1
    80001a22:	89b2                	mv	s3,a2
    80001a24:	8a36                	mv	s4,a3
  struct proc *p = myproc();
    80001a26:	fffff097          	auipc	ra,0xfffff
    80001a2a:	52a080e7          	jalr	1322(ra) # 80000f50 <myproc>
  if(user_dst){
    80001a2e:	c08d                	beqz	s1,80001a50 <either_copyout+0x42>
    return copyout(p->pagetable, dst, src, len);
    80001a30:	86d2                	mv	a3,s4
    80001a32:	864e                	mv	a2,s3
    80001a34:	85ca                	mv	a1,s2
    80001a36:	6928                	ld	a0,80(a0)
    80001a38:	fffff097          	auipc	ra,0xfffff
    80001a3c:	15e080e7          	jalr	350(ra) # 80000b96 <copyout>
  } else {
    memmove((char *)dst, src, len);
    return 0;
  }
}
    80001a40:	70a2                	ld	ra,40(sp)
    80001a42:	7402                	ld	s0,32(sp)
    80001a44:	64e2                	ld	s1,24(sp)
    80001a46:	6942                	ld	s2,16(sp)
    80001a48:	69a2                	ld	s3,8(sp)
    80001a4a:	6a02                	ld	s4,0(sp)
    80001a4c:	6145                	add	sp,sp,48
    80001a4e:	8082                	ret
    memmove((char *)dst, src, len);
    80001a50:	000a061b          	sext.w	a2,s4
    80001a54:	85ce                	mv	a1,s3
    80001a56:	854a                	mv	a0,s2
    80001a58:	ffffe097          	auipc	ra,0xffffe
    80001a5c:	7c8080e7          	jalr	1992(ra) # 80000220 <memmove>
    return 0;
    80001a60:	8526                	mv	a0,s1
    80001a62:	bff9                	j	80001a40 <either_copyout+0x32>

0000000080001a64 <either_copyin>:
// Copy from either a user address, or kernel address,
// depending on usr_src.
// Returns 0 on success, -1 on error.
int
either_copyin(void *dst, int user_src, uint64 src, uint64 len)
{
    80001a64:	7179                	add	sp,sp,-48
    80001a66:	f406                	sd	ra,40(sp)
    80001a68:	f022                	sd	s0,32(sp)
    80001a6a:	ec26                	sd	s1,24(sp)
    80001a6c:	e84a                	sd	s2,16(sp)
    80001a6e:	e44e                	sd	s3,8(sp)
    80001a70:	e052                	sd	s4,0(sp)
    80001a72:	1800                	add	s0,sp,48
    80001a74:	892a                	mv	s2,a0
    80001a76:	84ae                	mv	s1,a1
    80001a78:	89b2                	mv	s3,a2
    80001a7a:	8a36                	mv	s4,a3
  struct proc *p = myproc();
    80001a7c:	fffff097          	auipc	ra,0xfffff
    80001a80:	4d4080e7          	jalr	1236(ra) # 80000f50 <myproc>
  if(user_src){
    80001a84:	c08d                	beqz	s1,80001aa6 <either_copyin+0x42>
    return copyin(p->pagetable, dst, src, len);
    80001a86:	86d2                	mv	a3,s4
    80001a88:	864e                	mv	a2,s3
    80001a8a:	85ca                	mv	a1,s2
    80001a8c:	6928                	ld	a0,80(a0)
    80001a8e:	fffff097          	auipc	ra,0xfffff
    80001a92:	1e6080e7          	jalr	486(ra) # 80000c74 <copyin>
  } else {
    memmove(dst, (char*)src, len);
    return 0;
  }
}
    80001a96:	70a2                	ld	ra,40(sp)
    80001a98:	7402                	ld	s0,32(sp)
    80001a9a:	64e2                	ld	s1,24(sp)
    80001a9c:	6942                	ld	s2,16(sp)
    80001a9e:	69a2                	ld	s3,8(sp)
    80001aa0:	6a02                	ld	s4,0(sp)
    80001aa2:	6145                	add	sp,sp,48
    80001aa4:	8082                	ret
    memmove(dst, (char*)src, len);
    80001aa6:	000a061b          	sext.w	a2,s4
    80001aaa:	85ce                	mv	a1,s3
    80001aac:	854a                	mv	a0,s2
    80001aae:	ffffe097          	auipc	ra,0xffffe
    80001ab2:	772080e7          	jalr	1906(ra) # 80000220 <memmove>
    return 0;
    80001ab6:	8526                	mv	a0,s1
    80001ab8:	bff9                	j	80001a96 <either_copyin+0x32>

0000000080001aba <procdump>:
// Print a process listing to console.  For debugging.
// Runs when user types ^P on console.
// No lock to avoid wedging a stuck machine further.
void
procdump(void)
{
    80001aba:	715d                	add	sp,sp,-80
    80001abc:	e486                	sd	ra,72(sp)
    80001abe:	e0a2                	sd	s0,64(sp)
    80001ac0:	fc26                	sd	s1,56(sp)
    80001ac2:	f84a                	sd	s2,48(sp)
    80001ac4:	f44e                	sd	s3,40(sp)
    80001ac6:	f052                	sd	s4,32(sp)
    80001ac8:	ec56                	sd	s5,24(sp)
    80001aca:	e85a                	sd	s6,16(sp)
    80001acc:	e45e                	sd	s7,8(sp)
    80001ace:	0880                	add	s0,sp,80
  [ZOMBIE]    "zombie"
  };
  struct proc *p;
  char *state;

  printf("\n");
    80001ad0:	00006517          	auipc	a0,0x6
    80001ad4:	54850513          	add	a0,a0,1352 # 80008018 <etext+0x18>
    80001ad8:	00004097          	auipc	ra,0x4
    80001adc:	564080e7          	jalr	1380(ra) # 8000603c <printf>
  for(p = proc; p < &proc[NPROC]; p++){
    80001ae0:	0000a497          	auipc	s1,0xa
    80001ae4:	ee848493          	add	s1,s1,-280 # 8000b9c8 <proc+0x158>
    80001ae8:	00010917          	auipc	s2,0x10
    80001aec:	8e090913          	add	s2,s2,-1824 # 800113c8 <bcache+0x140>
    if(p->state == UNUSED)
      continue;
    if(p->state >= 0 && p->state < NELEM(states) && states[p->state])
    80001af0:	4b15                	li	s6,5
      state = states[p->state];
    else
      state = "???";
    80001af2:	00006997          	auipc	s3,0x6
    80001af6:	74e98993          	add	s3,s3,1870 # 80008240 <etext+0x240>
    printf("%d %s %s", p->pid, state, p->name);
    80001afa:	00006a97          	auipc	s5,0x6
    80001afe:	74ea8a93          	add	s5,s5,1870 # 80008248 <etext+0x248>
    printf("\n");
    80001b02:	00006a17          	auipc	s4,0x6
    80001b06:	516a0a13          	add	s4,s4,1302 # 80008018 <etext+0x18>
    if(p->state >= 0 && p->state < NELEM(states) && states[p->state])
    80001b0a:	00007b97          	auipc	s7,0x7
    80001b0e:	d2eb8b93          	add	s7,s7,-722 # 80008838 <states.0>
    80001b12:	a00d                	j	80001b34 <procdump+0x7a>
    printf("%d %s %s", p->pid, state, p->name);
    80001b14:	ed86a583          	lw	a1,-296(a3)
    80001b18:	8556                	mv	a0,s5
    80001b1a:	00004097          	auipc	ra,0x4
    80001b1e:	522080e7          	jalr	1314(ra) # 8000603c <printf>
    printf("\n");
    80001b22:	8552                	mv	a0,s4
    80001b24:	00004097          	auipc	ra,0x4
    80001b28:	518080e7          	jalr	1304(ra) # 8000603c <printf>
  for(p = proc; p < &proc[NPROC]; p++){
    80001b2c:	16848493          	add	s1,s1,360
    80001b30:	03248263          	beq	s1,s2,80001b54 <procdump+0x9a>
    if(p->state == UNUSED)
    80001b34:	86a6                	mv	a3,s1
    80001b36:	ec04a783          	lw	a5,-320(s1)
    80001b3a:	dbed                	beqz	a5,80001b2c <procdump+0x72>
      state = "???";
    80001b3c:	864e                	mv	a2,s3
    if(p->state >= 0 && p->state < NELEM(states) && states[p->state])
    80001b3e:	fcfb6be3          	bltu	s6,a5,80001b14 <procdump+0x5a>
    80001b42:	02079713          	sll	a4,a5,0x20
    80001b46:	01d75793          	srl	a5,a4,0x1d
    80001b4a:	97de                	add	a5,a5,s7
    80001b4c:	6390                	ld	a2,0(a5)
    80001b4e:	f279                	bnez	a2,80001b14 <procdump+0x5a>
      state = "???";
    80001b50:	864e                	mv	a2,s3
    80001b52:	b7c9                	j	80001b14 <procdump+0x5a>
  }
}
    80001b54:	60a6                	ld	ra,72(sp)
    80001b56:	6406                	ld	s0,64(sp)
    80001b58:	74e2                	ld	s1,56(sp)
    80001b5a:	7942                	ld	s2,48(sp)
    80001b5c:	79a2                	ld	s3,40(sp)
    80001b5e:	7a02                	ld	s4,32(sp)
    80001b60:	6ae2                	ld	s5,24(sp)
    80001b62:	6b42                	ld	s6,16(sp)
    80001b64:	6ba2                	ld	s7,8(sp)
    80001b66:	6161                	add	sp,sp,80
    80001b68:	8082                	ret

0000000080001b6a <numofproc>:

uint64 numofproc(void){
    80001b6a:	1141                	add	sp,sp,-16
    80001b6c:	e422                	sd	s0,8(sp)
    80001b6e:	0800                	add	s0,sp,16
  struct proc *p;
  uint64 count = 0;
    80001b70:	4501                	li	a0,0

  for(p = proc; p < &proc[NPROC]; p++) {
    80001b72:	0000a797          	auipc	a5,0xa
    80001b76:	cfe78793          	add	a5,a5,-770 # 8000b870 <proc>
    80001b7a:	0000f697          	auipc	a3,0xf
    80001b7e:	6f668693          	add	a3,a3,1782 # 80011270 <tickslock>
    if(p->state != UNUSED)
    80001b82:	4f98                	lw	a4,24(a5)
      count++;
    80001b84:	00e03733          	snez	a4,a4
    80001b88:	953a                	add	a0,a0,a4
  for(p = proc; p < &proc[NPROC]; p++) {
    80001b8a:	16878793          	add	a5,a5,360
    80001b8e:	fed79ae3          	bne	a5,a3,80001b82 <numofproc+0x18>
  }

  return count;
}
    80001b92:	6422                	ld	s0,8(sp)
    80001b94:	0141                	add	sp,sp,16
    80001b96:	8082                	ret

0000000080001b98 <swtch>:
    80001b98:	00153023          	sd	ra,0(a0)
    80001b9c:	00253423          	sd	sp,8(a0)
    80001ba0:	e900                	sd	s0,16(a0)
    80001ba2:	ed04                	sd	s1,24(a0)
    80001ba4:	03253023          	sd	s2,32(a0)
    80001ba8:	03353423          	sd	s3,40(a0)
    80001bac:	03453823          	sd	s4,48(a0)
    80001bb0:	03553c23          	sd	s5,56(a0)
    80001bb4:	05653023          	sd	s6,64(a0)
    80001bb8:	05753423          	sd	s7,72(a0)
    80001bbc:	05853823          	sd	s8,80(a0)
    80001bc0:	05953c23          	sd	s9,88(a0)
    80001bc4:	07a53023          	sd	s10,96(a0)
    80001bc8:	07b53423          	sd	s11,104(a0)
    80001bcc:	0005b083          	ld	ra,0(a1)
    80001bd0:	0085b103          	ld	sp,8(a1)
    80001bd4:	6980                	ld	s0,16(a1)
    80001bd6:	6d84                	ld	s1,24(a1)
    80001bd8:	0205b903          	ld	s2,32(a1)
    80001bdc:	0285b983          	ld	s3,40(a1)
    80001be0:	0305ba03          	ld	s4,48(a1)
    80001be4:	0385ba83          	ld	s5,56(a1)
    80001be8:	0405bb03          	ld	s6,64(a1)
    80001bec:	0485bb83          	ld	s7,72(a1)
    80001bf0:	0505bc03          	ld	s8,80(a1)
    80001bf4:	0585bc83          	ld	s9,88(a1)
    80001bf8:	0605bd03          	ld	s10,96(a1)
    80001bfc:	0685bd83          	ld	s11,104(a1)
    80001c00:	8082                	ret

0000000080001c02 <trapinit>:

extern int devintr();

void
trapinit(void)
{
    80001c02:	1141                	add	sp,sp,-16
    80001c04:	e406                	sd	ra,8(sp)
    80001c06:	e022                	sd	s0,0(sp)
    80001c08:	0800                	add	s0,sp,16
  initlock(&tickslock, "time");
    80001c0a:	00006597          	auipc	a1,0x6
    80001c0e:	67e58593          	add	a1,a1,1662 # 80008288 <etext+0x288>
    80001c12:	0000f517          	auipc	a0,0xf
    80001c16:	65e50513          	add	a0,a0,1630 # 80011270 <tickslock>
    80001c1a:	00005097          	auipc	ra,0x5
    80001c1e:	8c2080e7          	jalr	-1854(ra) # 800064dc <initlock>
}
    80001c22:	60a2                	ld	ra,8(sp)
    80001c24:	6402                	ld	s0,0(sp)
    80001c26:	0141                	add	sp,sp,16
    80001c28:	8082                	ret

0000000080001c2a <trapinithart>:

// set up to take exceptions and traps while in the kernel.
void
trapinithart(void)
{
    80001c2a:	1141                	add	sp,sp,-16
    80001c2c:	e422                	sd	s0,8(sp)
    80001c2e:	0800                	add	s0,sp,16
  asm volatile("csrw stvec, %0" : : "r" (x));
    80001c30:	00003797          	auipc	a5,0x3
    80001c34:	79078793          	add	a5,a5,1936 # 800053c0 <kernelvec>
    80001c38:	10579073          	csrw	stvec,a5
  w_stvec((uint64)kernelvec);
}
    80001c3c:	6422                	ld	s0,8(sp)
    80001c3e:	0141                	add	sp,sp,16
    80001c40:	8082                	ret

0000000080001c42 <usertrapret>:
//
// return to user space
//
void
usertrapret(void)
{
    80001c42:	1141                	add	sp,sp,-16
    80001c44:	e406                	sd	ra,8(sp)
    80001c46:	e022                	sd	s0,0(sp)
    80001c48:	0800                	add	s0,sp,16
  struct proc *p = myproc();
    80001c4a:	fffff097          	auipc	ra,0xfffff
    80001c4e:	306080e7          	jalr	774(ra) # 80000f50 <myproc>
  asm volatile("csrr %0, sstatus" : "=r" (x) );
    80001c52:	100027f3          	csrr	a5,sstatus
  w_sstatus(r_sstatus() & ~SSTATUS_SIE);
    80001c56:	9bf5                	and	a5,a5,-3
  asm volatile("csrw sstatus, %0" : : "r" (x));
    80001c58:	10079073          	csrw	sstatus,a5
  // kerneltrap() to usertrap(), so turn off interrupts until
  // we're back in user space, where usertrap() is correct.
  intr_off();

  // send syscalls, interrupts, and exceptions to uservec in trampoline.S
  uint64 trampoline_uservec = TRAMPOLINE + (uservec - trampoline);
    80001c5c:	00005697          	auipc	a3,0x5
    80001c60:	3a468693          	add	a3,a3,932 # 80007000 <_trampoline>
    80001c64:	00005717          	auipc	a4,0x5
    80001c68:	39c70713          	add	a4,a4,924 # 80007000 <_trampoline>
    80001c6c:	8f15                	sub	a4,a4,a3
    80001c6e:	040007b7          	lui	a5,0x4000
    80001c72:	17fd                	add	a5,a5,-1 # 3ffffff <_entry-0x7c000001>
    80001c74:	07b2                	sll	a5,a5,0xc
    80001c76:	973e                	add	a4,a4,a5
  asm volatile("csrw stvec, %0" : : "r" (x));
    80001c78:	10571073          	csrw	stvec,a4
  w_stvec(trampoline_uservec);

  // set up trapframe values that uservec will need when
  // the process next traps into the kernel.
  p->trapframe->kernel_satp = r_satp();         // kernel page table
    80001c7c:	6d38                	ld	a4,88(a0)
  asm volatile("csrr %0, satp" : "=r" (x) );
    80001c7e:	18002673          	csrr	a2,satp
    80001c82:	e310                	sd	a2,0(a4)
  p->trapframe->kernel_sp = p->kstack + PGSIZE; // process's kernel stack
    80001c84:	6d30                	ld	a2,88(a0)
    80001c86:	6138                	ld	a4,64(a0)
    80001c88:	6585                	lui	a1,0x1
    80001c8a:	972e                	add	a4,a4,a1
    80001c8c:	e618                	sd	a4,8(a2)
  p->trapframe->kernel_trap = (uint64)usertrap;
    80001c8e:	6d38                	ld	a4,88(a0)
    80001c90:	00000617          	auipc	a2,0x0
    80001c94:	13860613          	add	a2,a2,312 # 80001dc8 <usertrap>
    80001c98:	eb10                	sd	a2,16(a4)
  p->trapframe->kernel_hartid = r_tp();         // hartid for cpuid()
    80001c9a:	6d38                	ld	a4,88(a0)
  asm volatile("mv %0, tp" : "=r" (x) );
    80001c9c:	8612                	mv	a2,tp
    80001c9e:	f310                	sd	a2,32(a4)
  asm volatile("csrr %0, sstatus" : "=r" (x) );
    80001ca0:	10002773          	csrr	a4,sstatus
  // set up the registers that trampoline.S's sret will use
  // to get to user space.
  
  // set S Previous Privilege mode to User.
  unsigned long x = r_sstatus();
  x &= ~SSTATUS_SPP; // clear SPP to 0 for user mode
    80001ca4:	eff77713          	and	a4,a4,-257
  x |= SSTATUS_SPIE; // enable interrupts in user mode
    80001ca8:	02076713          	or	a4,a4,32
  asm volatile("csrw sstatus, %0" : : "r" (x));
    80001cac:	10071073          	csrw	sstatus,a4
  w_sstatus(x);

  // set S Exception Program Counter to the saved user pc.
  w_sepc(p->trapframe->epc);
    80001cb0:	6d38                	ld	a4,88(a0)
  asm volatile("csrw sepc, %0" : : "r" (x));
    80001cb2:	6f18                	ld	a4,24(a4)
    80001cb4:	14171073          	csrw	sepc,a4

  // tell trampoline.S the user page table to switch to.
  uint64 satp = MAKE_SATP(p->pagetable);
    80001cb8:	6928                	ld	a0,80(a0)
    80001cba:	8131                	srl	a0,a0,0xc

  // jump to userret in trampoline.S at the top of memory, which 
  // switches to the user page table, restores user registers,
  // and switches to user mode with sret.
  uint64 trampoline_userret = TRAMPOLINE + (userret - trampoline);
    80001cbc:	00005717          	auipc	a4,0x5
    80001cc0:	3e070713          	add	a4,a4,992 # 8000709c <userret>
    80001cc4:	8f15                	sub	a4,a4,a3
    80001cc6:	97ba                	add	a5,a5,a4
  ((void (*)(uint64))trampoline_userret)(satp);
    80001cc8:	577d                	li	a4,-1
    80001cca:	177e                	sll	a4,a4,0x3f
    80001ccc:	8d59                	or	a0,a0,a4
    80001cce:	9782                	jalr	a5
}
    80001cd0:	60a2                	ld	ra,8(sp)
    80001cd2:	6402                	ld	s0,0(sp)
    80001cd4:	0141                	add	sp,sp,16
    80001cd6:	8082                	ret

0000000080001cd8 <clockintr>:
  w_sstatus(sstatus);
}

void
clockintr()
{
    80001cd8:	1101                	add	sp,sp,-32
    80001cda:	ec06                	sd	ra,24(sp)
    80001cdc:	e822                	sd	s0,16(sp)
    80001cde:	e426                	sd	s1,8(sp)
    80001ce0:	1000                	add	s0,sp,32
  acquire(&tickslock);
    80001ce2:	0000f497          	auipc	s1,0xf
    80001ce6:	58e48493          	add	s1,s1,1422 # 80011270 <tickslock>
    80001cea:	8526                	mv	a0,s1
    80001cec:	00005097          	auipc	ra,0x5
    80001cf0:	880080e7          	jalr	-1920(ra) # 8000656c <acquire>
  ticks++;
    80001cf4:	00009517          	auipc	a0,0x9
    80001cf8:	71450513          	add	a0,a0,1812 # 8000b408 <ticks>
    80001cfc:	411c                	lw	a5,0(a0)
    80001cfe:	2785                	addw	a5,a5,1
    80001d00:	c11c                	sw	a5,0(a0)
  wakeup(&ticks);
    80001d02:	00000097          	auipc	ra,0x0
    80001d06:	968080e7          	jalr	-1688(ra) # 8000166a <wakeup>
  release(&tickslock);
    80001d0a:	8526                	mv	a0,s1
    80001d0c:	00005097          	auipc	ra,0x5
    80001d10:	914080e7          	jalr	-1772(ra) # 80006620 <release>
}
    80001d14:	60e2                	ld	ra,24(sp)
    80001d16:	6442                	ld	s0,16(sp)
    80001d18:	64a2                	ld	s1,8(sp)
    80001d1a:	6105                	add	sp,sp,32
    80001d1c:	8082                	ret

0000000080001d1e <devintr>:
  asm volatile("csrr %0, scause" : "=r" (x) );
    80001d1e:	142027f3          	csrr	a5,scause
    // the SSIP bit in sip.
    w_sip(r_sip() & ~2);

    return 2;
  } else {
    return 0;
    80001d22:	4501                	li	a0,0
  if((scause & 0x8000000000000000L) &&
    80001d24:	0a07d163          	bgez	a5,80001dc6 <devintr+0xa8>
{
    80001d28:	1101                	add	sp,sp,-32
    80001d2a:	ec06                	sd	ra,24(sp)
    80001d2c:	e822                	sd	s0,16(sp)
    80001d2e:	1000                	add	s0,sp,32
     (scause & 0xff) == 9){
    80001d30:	0ff7f713          	zext.b	a4,a5
  if((scause & 0x8000000000000000L) &&
    80001d34:	46a5                	li	a3,9
    80001d36:	00d70c63          	beq	a4,a3,80001d4e <devintr+0x30>
  } else if(scause == 0x8000000000000001L){
    80001d3a:	577d                	li	a4,-1
    80001d3c:	177e                	sll	a4,a4,0x3f
    80001d3e:	0705                	add	a4,a4,1
    return 0;
    80001d40:	4501                	li	a0,0
  } else if(scause == 0x8000000000000001L){
    80001d42:	06e78163          	beq	a5,a4,80001da4 <devintr+0x86>
  }
}
    80001d46:	60e2                	ld	ra,24(sp)
    80001d48:	6442                	ld	s0,16(sp)
    80001d4a:	6105                	add	sp,sp,32
    80001d4c:	8082                	ret
    80001d4e:	e426                	sd	s1,8(sp)
    int irq = plic_claim();
    80001d50:	00003097          	auipc	ra,0x3
    80001d54:	77c080e7          	jalr	1916(ra) # 800054cc <plic_claim>
    80001d58:	84aa                	mv	s1,a0
    if(irq == UART0_IRQ){
    80001d5a:	47a9                	li	a5,10
    80001d5c:	00f50963          	beq	a0,a5,80001d6e <devintr+0x50>
    } else if(irq == VIRTIO0_IRQ){
    80001d60:	4785                	li	a5,1
    80001d62:	00f50b63          	beq	a0,a5,80001d78 <devintr+0x5a>
    return 1;
    80001d66:	4505                	li	a0,1
    } else if(irq){
    80001d68:	ec89                	bnez	s1,80001d82 <devintr+0x64>
    80001d6a:	64a2                	ld	s1,8(sp)
    80001d6c:	bfe9                	j	80001d46 <devintr+0x28>
      uartintr();
    80001d6e:	00004097          	auipc	ra,0x4
    80001d72:	71e080e7          	jalr	1822(ra) # 8000648c <uartintr>
    if(irq)
    80001d76:	a839                	j	80001d94 <devintr+0x76>
      virtio_disk_intr();
    80001d78:	00004097          	auipc	ra,0x4
    80001d7c:	c7e080e7          	jalr	-898(ra) # 800059f6 <virtio_disk_intr>
    if(irq)
    80001d80:	a811                	j	80001d94 <devintr+0x76>
      printf("unexpected interrupt irq=%d\n", irq);
    80001d82:	85a6                	mv	a1,s1
    80001d84:	00006517          	auipc	a0,0x6
    80001d88:	50c50513          	add	a0,a0,1292 # 80008290 <etext+0x290>
    80001d8c:	00004097          	auipc	ra,0x4
    80001d90:	2b0080e7          	jalr	688(ra) # 8000603c <printf>
      plic_complete(irq);
    80001d94:	8526                	mv	a0,s1
    80001d96:	00003097          	auipc	ra,0x3
    80001d9a:	75a080e7          	jalr	1882(ra) # 800054f0 <plic_complete>
    return 1;
    80001d9e:	4505                	li	a0,1
    80001da0:	64a2                	ld	s1,8(sp)
    80001da2:	b755                	j	80001d46 <devintr+0x28>
    if(cpuid() == 0){
    80001da4:	fffff097          	auipc	ra,0xfffff
    80001da8:	180080e7          	jalr	384(ra) # 80000f24 <cpuid>
    80001dac:	c901                	beqz	a0,80001dbc <devintr+0x9e>
  asm volatile("csrr %0, sip" : "=r" (x) );
    80001dae:	144027f3          	csrr	a5,sip
    w_sip(r_sip() & ~2);
    80001db2:	9bf5                	and	a5,a5,-3
  asm volatile("csrw sip, %0" : : "r" (x));
    80001db4:	14479073          	csrw	sip,a5
    return 2;
    80001db8:	4509                	li	a0,2
    80001dba:	b771                	j	80001d46 <devintr+0x28>
      clockintr();
    80001dbc:	00000097          	auipc	ra,0x0
    80001dc0:	f1c080e7          	jalr	-228(ra) # 80001cd8 <clockintr>
    80001dc4:	b7ed                	j	80001dae <devintr+0x90>
}
    80001dc6:	8082                	ret

0000000080001dc8 <usertrap>:
{
    80001dc8:	1101                	add	sp,sp,-32
    80001dca:	ec06                	sd	ra,24(sp)
    80001dcc:	e822                	sd	s0,16(sp)
    80001dce:	e426                	sd	s1,8(sp)
    80001dd0:	e04a                	sd	s2,0(sp)
    80001dd2:	1000                	add	s0,sp,32
  asm volatile("csrr %0, sstatus" : "=r" (x) );
    80001dd4:	100027f3          	csrr	a5,sstatus
  if((r_sstatus() & SSTATUS_SPP) != 0)
    80001dd8:	1007f793          	and	a5,a5,256
    80001ddc:	e3b1                	bnez	a5,80001e20 <usertrap+0x58>
  asm volatile("csrw stvec, %0" : : "r" (x));
    80001dde:	00003797          	auipc	a5,0x3
    80001de2:	5e278793          	add	a5,a5,1506 # 800053c0 <kernelvec>
    80001de6:	10579073          	csrw	stvec,a5
  struct proc *p = myproc();
    80001dea:	fffff097          	auipc	ra,0xfffff
    80001dee:	166080e7          	jalr	358(ra) # 80000f50 <myproc>
    80001df2:	84aa                	mv	s1,a0
  p->trapframe->epc = r_sepc();
    80001df4:	6d3c                	ld	a5,88(a0)
  asm volatile("csrr %0, sepc" : "=r" (x) );
    80001df6:	14102773          	csrr	a4,sepc
    80001dfa:	ef98                	sd	a4,24(a5)
  asm volatile("csrr %0, scause" : "=r" (x) );
    80001dfc:	14202773          	csrr	a4,scause
  if(r_scause() == 8){
    80001e00:	47a1                	li	a5,8
    80001e02:	02f70763          	beq	a4,a5,80001e30 <usertrap+0x68>
  } else if((which_dev = devintr()) != 0){
    80001e06:	00000097          	auipc	ra,0x0
    80001e0a:	f18080e7          	jalr	-232(ra) # 80001d1e <devintr>
    80001e0e:	892a                	mv	s2,a0
    80001e10:	c151                	beqz	a0,80001e94 <usertrap+0xcc>
  if(killed(p))
    80001e12:	8526                	mv	a0,s1
    80001e14:	00000097          	auipc	ra,0x0
    80001e18:	a9a080e7          	jalr	-1382(ra) # 800018ae <killed>
    80001e1c:	c929                	beqz	a0,80001e6e <usertrap+0xa6>
    80001e1e:	a099                	j	80001e64 <usertrap+0x9c>
    panic("usertrap: not from user mode");
    80001e20:	00006517          	auipc	a0,0x6
    80001e24:	49050513          	add	a0,a0,1168 # 800082b0 <etext+0x2b0>
    80001e28:	00004097          	auipc	ra,0x4
    80001e2c:	1ca080e7          	jalr	458(ra) # 80005ff2 <panic>
    if(killed(p))
    80001e30:	00000097          	auipc	ra,0x0
    80001e34:	a7e080e7          	jalr	-1410(ra) # 800018ae <killed>
    80001e38:	e921                	bnez	a0,80001e88 <usertrap+0xc0>
    p->trapframe->epc += 4;
    80001e3a:	6cb8                	ld	a4,88(s1)
    80001e3c:	6f1c                	ld	a5,24(a4)
    80001e3e:	0791                	add	a5,a5,4
    80001e40:	ef1c                	sd	a5,24(a4)
  asm volatile("csrr %0, sstatus" : "=r" (x) );
    80001e42:	100027f3          	csrr	a5,sstatus
  w_sstatus(r_sstatus() | SSTATUS_SIE);
    80001e46:	0027e793          	or	a5,a5,2
  asm volatile("csrw sstatus, %0" : : "r" (x));
    80001e4a:	10079073          	csrw	sstatus,a5
    syscall();
    80001e4e:	00000097          	auipc	ra,0x0
    80001e52:	3e6080e7          	jalr	998(ra) # 80002234 <syscall>
  if(killed(p))
    80001e56:	8526                	mv	a0,s1
    80001e58:	00000097          	auipc	ra,0x0
    80001e5c:	a56080e7          	jalr	-1450(ra) # 800018ae <killed>
    80001e60:	c911                	beqz	a0,80001e74 <usertrap+0xac>
    80001e62:	4901                	li	s2,0
    exit(-1);
    80001e64:	557d                	li	a0,-1
    80001e66:	00000097          	auipc	ra,0x0
    80001e6a:	8d4080e7          	jalr	-1836(ra) # 8000173a <exit>
  if(which_dev == 2)
    80001e6e:	4789                	li	a5,2
    80001e70:	04f90f63          	beq	s2,a5,80001ece <usertrap+0x106>
  usertrapret();
    80001e74:	00000097          	auipc	ra,0x0
    80001e78:	dce080e7          	jalr	-562(ra) # 80001c42 <usertrapret>
}
    80001e7c:	60e2                	ld	ra,24(sp)
    80001e7e:	6442                	ld	s0,16(sp)
    80001e80:	64a2                	ld	s1,8(sp)
    80001e82:	6902                	ld	s2,0(sp)
    80001e84:	6105                	add	sp,sp,32
    80001e86:	8082                	ret
      exit(-1);
    80001e88:	557d                	li	a0,-1
    80001e8a:	00000097          	auipc	ra,0x0
    80001e8e:	8b0080e7          	jalr	-1872(ra) # 8000173a <exit>
    80001e92:	b765                	j	80001e3a <usertrap+0x72>
  asm volatile("csrr %0, scause" : "=r" (x) );
    80001e94:	142025f3          	csrr	a1,scause
    printf("usertrap(): unexpected scause %p pid=%d\n", r_scause(), p->pid);
    80001e98:	5890                	lw	a2,48(s1)
    80001e9a:	00006517          	auipc	a0,0x6
    80001e9e:	43650513          	add	a0,a0,1078 # 800082d0 <etext+0x2d0>
    80001ea2:	00004097          	auipc	ra,0x4
    80001ea6:	19a080e7          	jalr	410(ra) # 8000603c <printf>
  asm volatile("csrr %0, sepc" : "=r" (x) );
    80001eaa:	141025f3          	csrr	a1,sepc
  asm volatile("csrr %0, stval" : "=r" (x) );
    80001eae:	14302673          	csrr	a2,stval
    printf("            sepc=%p stval=%p\n", r_sepc(), r_stval());
    80001eb2:	00006517          	auipc	a0,0x6
    80001eb6:	44e50513          	add	a0,a0,1102 # 80008300 <etext+0x300>
    80001eba:	00004097          	auipc	ra,0x4
    80001ebe:	182080e7          	jalr	386(ra) # 8000603c <printf>
    setkilled(p);
    80001ec2:	8526                	mv	a0,s1
    80001ec4:	00000097          	auipc	ra,0x0
    80001ec8:	9be080e7          	jalr	-1602(ra) # 80001882 <setkilled>
    80001ecc:	b769                	j	80001e56 <usertrap+0x8e>
    yield();
    80001ece:	fffff097          	auipc	ra,0xfffff
    80001ed2:	6fc080e7          	jalr	1788(ra) # 800015ca <yield>
    80001ed6:	bf79                	j	80001e74 <usertrap+0xac>

0000000080001ed8 <kerneltrap>:
{
    80001ed8:	7179                	add	sp,sp,-48
    80001eda:	f406                	sd	ra,40(sp)
    80001edc:	f022                	sd	s0,32(sp)
    80001ede:	ec26                	sd	s1,24(sp)
    80001ee0:	e84a                	sd	s2,16(sp)
    80001ee2:	e44e                	sd	s3,8(sp)
    80001ee4:	1800                	add	s0,sp,48
  asm volatile("csrr %0, sepc" : "=r" (x) );
    80001ee6:	14102973          	csrr	s2,sepc
  asm volatile("csrr %0, sstatus" : "=r" (x) );
    80001eea:	100024f3          	csrr	s1,sstatus
  asm volatile("csrr %0, scause" : "=r" (x) );
    80001eee:	142029f3          	csrr	s3,scause
  if((sstatus & SSTATUS_SPP) == 0)
    80001ef2:	1004f793          	and	a5,s1,256
    80001ef6:	cb85                	beqz	a5,80001f26 <kerneltrap+0x4e>
  asm volatile("csrr %0, sstatus" : "=r" (x) );
    80001ef8:	100027f3          	csrr	a5,sstatus
  return (x & SSTATUS_SIE) != 0;
    80001efc:	8b89                	and	a5,a5,2
  if(intr_get() != 0)
    80001efe:	ef85                	bnez	a5,80001f36 <kerneltrap+0x5e>
  if((which_dev = devintr()) == 0){
    80001f00:	00000097          	auipc	ra,0x0
    80001f04:	e1e080e7          	jalr	-482(ra) # 80001d1e <devintr>
    80001f08:	cd1d                	beqz	a0,80001f46 <kerneltrap+0x6e>
  if(which_dev == 2 && myproc() != 0 && myproc()->state == RUNNING)
    80001f0a:	4789                	li	a5,2
    80001f0c:	06f50a63          	beq	a0,a5,80001f80 <kerneltrap+0xa8>
  asm volatile("csrw sepc, %0" : : "r" (x));
    80001f10:	14191073          	csrw	sepc,s2
  asm volatile("csrw sstatus, %0" : : "r" (x));
    80001f14:	10049073          	csrw	sstatus,s1
}
    80001f18:	70a2                	ld	ra,40(sp)
    80001f1a:	7402                	ld	s0,32(sp)
    80001f1c:	64e2                	ld	s1,24(sp)
    80001f1e:	6942                	ld	s2,16(sp)
    80001f20:	69a2                	ld	s3,8(sp)
    80001f22:	6145                	add	sp,sp,48
    80001f24:	8082                	ret
    panic("kerneltrap: not from supervisor mode");
    80001f26:	00006517          	auipc	a0,0x6
    80001f2a:	3fa50513          	add	a0,a0,1018 # 80008320 <etext+0x320>
    80001f2e:	00004097          	auipc	ra,0x4
    80001f32:	0c4080e7          	jalr	196(ra) # 80005ff2 <panic>
    panic("kerneltrap: interrupts enabled");
    80001f36:	00006517          	auipc	a0,0x6
    80001f3a:	41250513          	add	a0,a0,1042 # 80008348 <etext+0x348>
    80001f3e:	00004097          	auipc	ra,0x4
    80001f42:	0b4080e7          	jalr	180(ra) # 80005ff2 <panic>
    printf("scause %p\n", scause);
    80001f46:	85ce                	mv	a1,s3
    80001f48:	00006517          	auipc	a0,0x6
    80001f4c:	42050513          	add	a0,a0,1056 # 80008368 <etext+0x368>
    80001f50:	00004097          	auipc	ra,0x4
    80001f54:	0ec080e7          	jalr	236(ra) # 8000603c <printf>
  asm volatile("csrr %0, sepc" : "=r" (x) );
    80001f58:	141025f3          	csrr	a1,sepc
  asm volatile("csrr %0, stval" : "=r" (x) );
    80001f5c:	14302673          	csrr	a2,stval
    printf("sepc=%p stval=%p\n", r_sepc(), r_stval());
    80001f60:	00006517          	auipc	a0,0x6
    80001f64:	41850513          	add	a0,a0,1048 # 80008378 <etext+0x378>
    80001f68:	00004097          	auipc	ra,0x4
    80001f6c:	0d4080e7          	jalr	212(ra) # 8000603c <printf>
    panic("kerneltrap");
    80001f70:	00006517          	auipc	a0,0x6
    80001f74:	42050513          	add	a0,a0,1056 # 80008390 <etext+0x390>
    80001f78:	00004097          	auipc	ra,0x4
    80001f7c:	07a080e7          	jalr	122(ra) # 80005ff2 <panic>
  if(which_dev == 2 && myproc() != 0 && myproc()->state == RUNNING)
    80001f80:	fffff097          	auipc	ra,0xfffff
    80001f84:	fd0080e7          	jalr	-48(ra) # 80000f50 <myproc>
    80001f88:	d541                	beqz	a0,80001f10 <kerneltrap+0x38>
    80001f8a:	fffff097          	auipc	ra,0xfffff
    80001f8e:	fc6080e7          	jalr	-58(ra) # 80000f50 <myproc>
    80001f92:	4d18                	lw	a4,24(a0)
    80001f94:	4791                	li	a5,4
    80001f96:	f6f71de3          	bne	a4,a5,80001f10 <kerneltrap+0x38>
    yield();
    80001f9a:	fffff097          	auipc	ra,0xfffff
    80001f9e:	630080e7          	jalr	1584(ra) # 800015ca <yield>
    80001fa2:	b7bd                	j	80001f10 <kerneltrap+0x38>

0000000080001fa4 <argraw>:
  return strlen(buf);
}

static uint64
argraw(int n)
{
    80001fa4:	1101                	add	sp,sp,-32
    80001fa6:	ec06                	sd	ra,24(sp)
    80001fa8:	e822                	sd	s0,16(sp)
    80001faa:	e426                	sd	s1,8(sp)
    80001fac:	1000                	add	s0,sp,32
    80001fae:	84aa                	mv	s1,a0
  struct proc *p = myproc();
    80001fb0:	fffff097          	auipc	ra,0xfffff
    80001fb4:	fa0080e7          	jalr	-96(ra) # 80000f50 <myproc>
  switch (n) {
    80001fb8:	4795                	li	a5,5
    80001fba:	0497e163          	bltu	a5,s1,80001ffc <argraw+0x58>
    80001fbe:	048a                	sll	s1,s1,0x2
    80001fc0:	00007717          	auipc	a4,0x7
    80001fc4:	8a870713          	add	a4,a4,-1880 # 80008868 <states.0+0x30>
    80001fc8:	94ba                	add	s1,s1,a4
    80001fca:	409c                	lw	a5,0(s1)
    80001fcc:	97ba                	add	a5,a5,a4
    80001fce:	8782                	jr	a5
  case 0:
    return p->trapframe->a0;
    80001fd0:	6d3c                	ld	a5,88(a0)
    80001fd2:	7ba8                	ld	a0,112(a5)
  case 5:
    return p->trapframe->a5;
  }
  panic("argraw");
  return -1;
}
    80001fd4:	60e2                	ld	ra,24(sp)
    80001fd6:	6442                	ld	s0,16(sp)
    80001fd8:	64a2                	ld	s1,8(sp)
    80001fda:	6105                	add	sp,sp,32
    80001fdc:	8082                	ret
    return p->trapframe->a1;
    80001fde:	6d3c                	ld	a5,88(a0)
    80001fe0:	7fa8                	ld	a0,120(a5)
    80001fe2:	bfcd                	j	80001fd4 <argraw+0x30>
    return p->trapframe->a2;
    80001fe4:	6d3c                	ld	a5,88(a0)
    80001fe6:	63c8                	ld	a0,128(a5)
    80001fe8:	b7f5                	j	80001fd4 <argraw+0x30>
    return p->trapframe->a3;
    80001fea:	6d3c                	ld	a5,88(a0)
    80001fec:	67c8                	ld	a0,136(a5)
    80001fee:	b7dd                	j	80001fd4 <argraw+0x30>
    return p->trapframe->a4;
    80001ff0:	6d3c                	ld	a5,88(a0)
    80001ff2:	6bc8                	ld	a0,144(a5)
    80001ff4:	b7c5                	j	80001fd4 <argraw+0x30>
    return p->trapframe->a5;
    80001ff6:	6d3c                	ld	a5,88(a0)
    80001ff8:	6fc8                	ld	a0,152(a5)
    80001ffa:	bfe9                	j	80001fd4 <argraw+0x30>
  panic("argraw");
    80001ffc:	00006517          	auipc	a0,0x6
    80002000:	3a450513          	add	a0,a0,932 # 800083a0 <etext+0x3a0>
    80002004:	00004097          	auipc	ra,0x4
    80002008:	fee080e7          	jalr	-18(ra) # 80005ff2 <panic>

000000008000200c <fetchaddr>:
{
    8000200c:	1101                	add	sp,sp,-32
    8000200e:	ec06                	sd	ra,24(sp)
    80002010:	e822                	sd	s0,16(sp)
    80002012:	e426                	sd	s1,8(sp)
    80002014:	e04a                	sd	s2,0(sp)
    80002016:	1000                	add	s0,sp,32
    80002018:	84aa                	mv	s1,a0
    8000201a:	892e                	mv	s2,a1
  struct proc *p = myproc();
    8000201c:	fffff097          	auipc	ra,0xfffff
    80002020:	f34080e7          	jalr	-204(ra) # 80000f50 <myproc>
  if(addr >= p->sz || addr+sizeof(uint64) > p->sz) // both tests needed, in case of overflow
    80002024:	653c                	ld	a5,72(a0)
    80002026:	02f4f863          	bgeu	s1,a5,80002056 <fetchaddr+0x4a>
    8000202a:	00848713          	add	a4,s1,8
    8000202e:	02e7e663          	bltu	a5,a4,8000205a <fetchaddr+0x4e>
  if(copyin(p->pagetable, (char *)ip, addr, sizeof(*ip)) != 0)
    80002032:	46a1                	li	a3,8
    80002034:	8626                	mv	a2,s1
    80002036:	85ca                	mv	a1,s2
    80002038:	6928                	ld	a0,80(a0)
    8000203a:	fffff097          	auipc	ra,0xfffff
    8000203e:	c3a080e7          	jalr	-966(ra) # 80000c74 <copyin>
    80002042:	00a03533          	snez	a0,a0
    80002046:	40a00533          	neg	a0,a0
}
    8000204a:	60e2                	ld	ra,24(sp)
    8000204c:	6442                	ld	s0,16(sp)
    8000204e:	64a2                	ld	s1,8(sp)
    80002050:	6902                	ld	s2,0(sp)
    80002052:	6105                	add	sp,sp,32
    80002054:	8082                	ret
    return -1;
    80002056:	557d                	li	a0,-1
    80002058:	bfcd                	j	8000204a <fetchaddr+0x3e>
    8000205a:	557d                	li	a0,-1
    8000205c:	b7fd                	j	8000204a <fetchaddr+0x3e>

000000008000205e <fetchstr>:
{
    8000205e:	7179                	add	sp,sp,-48
    80002060:	f406                	sd	ra,40(sp)
    80002062:	f022                	sd	s0,32(sp)
    80002064:	ec26                	sd	s1,24(sp)
    80002066:	e84a                	sd	s2,16(sp)
    80002068:	e44e                	sd	s3,8(sp)
    8000206a:	1800                	add	s0,sp,48
    8000206c:	892a                	mv	s2,a0
    8000206e:	84ae                	mv	s1,a1
    80002070:	89b2                	mv	s3,a2
  struct proc *p = myproc();
    80002072:	fffff097          	auipc	ra,0xfffff
    80002076:	ede080e7          	jalr	-290(ra) # 80000f50 <myproc>
  if(copyinstr(p->pagetable, buf, addr, max) < 0)
    8000207a:	86ce                	mv	a3,s3
    8000207c:	864a                	mv	a2,s2
    8000207e:	85a6                	mv	a1,s1
    80002080:	6928                	ld	a0,80(a0)
    80002082:	fffff097          	auipc	ra,0xfffff
    80002086:	c80080e7          	jalr	-896(ra) # 80000d02 <copyinstr>
    8000208a:	00054e63          	bltz	a0,800020a6 <fetchstr+0x48>
  return strlen(buf);
    8000208e:	8526                	mv	a0,s1
    80002090:	ffffe097          	auipc	ra,0xffffe
    80002094:	2a8080e7          	jalr	680(ra) # 80000338 <strlen>
}
    80002098:	70a2                	ld	ra,40(sp)
    8000209a:	7402                	ld	s0,32(sp)
    8000209c:	64e2                	ld	s1,24(sp)
    8000209e:	6942                	ld	s2,16(sp)
    800020a0:	69a2                	ld	s3,8(sp)
    800020a2:	6145                	add	sp,sp,48
    800020a4:	8082                	ret
    return -1;
    800020a6:	557d                	li	a0,-1
    800020a8:	bfc5                	j	80002098 <fetchstr+0x3a>

00000000800020aa <argint>:

// Fetch the nth 32-bit system call argument.
void
argint(int n, int *ip)
{
    800020aa:	1101                	add	sp,sp,-32
    800020ac:	ec06                	sd	ra,24(sp)
    800020ae:	e822                	sd	s0,16(sp)
    800020b0:	e426                	sd	s1,8(sp)
    800020b2:	1000                	add	s0,sp,32
    800020b4:	84ae                	mv	s1,a1
  *ip = argraw(n);
    800020b6:	00000097          	auipc	ra,0x0
    800020ba:	eee080e7          	jalr	-274(ra) # 80001fa4 <argraw>
    800020be:	c088                	sw	a0,0(s1)
}
    800020c0:	60e2                	ld	ra,24(sp)
    800020c2:	6442                	ld	s0,16(sp)
    800020c4:	64a2                	ld	s1,8(sp)
    800020c6:	6105                	add	sp,sp,32
    800020c8:	8082                	ret

00000000800020ca <argaddr>:
// Retrieve an argument as a pointer.
// Doesn't check for legality, since
// copyin/copyout will do that.
void
argaddr(int n, uint64 *ip)
{
    800020ca:	1101                	add	sp,sp,-32
    800020cc:	ec06                	sd	ra,24(sp)
    800020ce:	e822                	sd	s0,16(sp)
    800020d0:	e426                	sd	s1,8(sp)
    800020d2:	1000                	add	s0,sp,32
    800020d4:	84ae                	mv	s1,a1
  *ip = argraw(n);
    800020d6:	00000097          	auipc	ra,0x0
    800020da:	ece080e7          	jalr	-306(ra) # 80001fa4 <argraw>
    800020de:	e088                	sd	a0,0(s1)
}
    800020e0:	60e2                	ld	ra,24(sp)
    800020e2:	6442                	ld	s0,16(sp)
    800020e4:	64a2                	ld	s1,8(sp)
    800020e6:	6105                	add	sp,sp,32
    800020e8:	8082                	ret

00000000800020ea <argstr>:
// Fetch the nth word-sized system call argument as a null-terminated string.
// Copies into buf, at most max.
// Returns string length if OK (including nul), -1 if error.
int
argstr(int n, char *buf, int max)
{
    800020ea:	7179                	add	sp,sp,-48
    800020ec:	f406                	sd	ra,40(sp)
    800020ee:	f022                	sd	s0,32(sp)
    800020f0:	ec26                	sd	s1,24(sp)
    800020f2:	e84a                	sd	s2,16(sp)
    800020f4:	1800                	add	s0,sp,48
    800020f6:	84ae                	mv	s1,a1
    800020f8:	8932                	mv	s2,a2
  uint64 addr;
  argaddr(n, &addr);
    800020fa:	fd840593          	add	a1,s0,-40
    800020fe:	00000097          	auipc	ra,0x0
    80002102:	fcc080e7          	jalr	-52(ra) # 800020ca <argaddr>
  return fetchstr(addr, buf, max);
    80002106:	864a                	mv	a2,s2
    80002108:	85a6                	mv	a1,s1
    8000210a:	fd843503          	ld	a0,-40(s0)
    8000210e:	00000097          	auipc	ra,0x0
    80002112:	f50080e7          	jalr	-176(ra) # 8000205e <fetchstr>
}
    80002116:	70a2                	ld	ra,40(sp)
    80002118:	7402                	ld	s0,32(sp)
    8000211a:	64e2                	ld	s1,24(sp)
    8000211c:	6942                	ld	s2,16(sp)
    8000211e:	6145                	add	sp,sp,48
    80002120:	8082                	ret

0000000080002122 <SysNumToName>:
[SYS_close]   sys_close,
[SYS_trace]   sys_trace,
[SYS_sysinfo] sys_sysinfo,
};

const char* SysNumToName(int value) {
    80002122:	1141                	add	sp,sp,-16
    80002124:	e422                	sd	s0,8(sp)
    80002126:	0800                	add	s0,sp,16
    switch (value) {
    80002128:	47dd                	li	a5,23
    8000212a:	0ea7eb63          	bltu	a5,a0,80002220 <SysNumToName+0xfe>
    8000212e:	050a                	sll	a0,a0,0x2
    80002130:	00006717          	auipc	a4,0x6
    80002134:	75070713          	add	a4,a4,1872 # 80008880 <states.0+0x48>
    80002138:	953a                	add	a0,a0,a4
    8000213a:	411c                	lw	a5,0(a0)
    8000213c:	97ba                	add	a5,a5,a4
    8000213e:	8782                	jr	a5
        case SYS_fork:
            return "fork";
    80002140:	00006517          	auipc	a0,0x6
    80002144:	26850513          	add	a0,a0,616 # 800083a8 <etext+0x3a8>
        case SYS_sysinfo:
            return "sysinfo";
        default:
            return "Unknown";
    }
}
    80002148:	6422                	ld	s0,8(sp)
    8000214a:	0141                	add	sp,sp,16
    8000214c:	8082                	ret
            return "wait";
    8000214e:	00006517          	auipc	a0,0x6
    80002152:	26a50513          	add	a0,a0,618 # 800083b8 <etext+0x3b8>
    80002156:	bfcd                	j	80002148 <SysNumToName+0x26>
            return "pipe";
    80002158:	00006517          	auipc	a0,0x6
    8000215c:	26850513          	add	a0,a0,616 # 800083c0 <etext+0x3c0>
    80002160:	b7e5                	j	80002148 <SysNumToName+0x26>
            return "read";
    80002162:	00006517          	auipc	a0,0x6
    80002166:	45650513          	add	a0,a0,1110 # 800085b8 <etext+0x5b8>
    8000216a:	bff9                	j	80002148 <SysNumToName+0x26>
            return "kill";
    8000216c:	00006517          	auipc	a0,0x6
    80002170:	25c50513          	add	a0,a0,604 # 800083c8 <etext+0x3c8>
    80002174:	bfd1                	j	80002148 <SysNumToName+0x26>
            return "exec";
    80002176:	00006517          	auipc	a0,0x6
    8000217a:	25a50513          	add	a0,a0,602 # 800083d0 <etext+0x3d0>
    8000217e:	b7e9                	j	80002148 <SysNumToName+0x26>
            return "fstat";
    80002180:	00006517          	auipc	a0,0x6
    80002184:	25850513          	add	a0,a0,600 # 800083d8 <etext+0x3d8>
    80002188:	b7c1                	j	80002148 <SysNumToName+0x26>
            return "chdir";
    8000218a:	00006517          	auipc	a0,0x6
    8000218e:	25650513          	add	a0,a0,598 # 800083e0 <etext+0x3e0>
    80002192:	bf5d                	j	80002148 <SysNumToName+0x26>
            return "dup";
    80002194:	00006517          	auipc	a0,0x6
    80002198:	25450513          	add	a0,a0,596 # 800083e8 <etext+0x3e8>
    8000219c:	b775                	j	80002148 <SysNumToName+0x26>
            return "getpid";
    8000219e:	00006517          	auipc	a0,0x6
    800021a2:	25250513          	add	a0,a0,594 # 800083f0 <etext+0x3f0>
    800021a6:	b74d                	j	80002148 <SysNumToName+0x26>
            return "sbrk";
    800021a8:	00006517          	auipc	a0,0x6
    800021ac:	25050513          	add	a0,a0,592 # 800083f8 <etext+0x3f8>
    800021b0:	bf61                	j	80002148 <SysNumToName+0x26>
            return "sleep";
    800021b2:	00006517          	auipc	a0,0x6
    800021b6:	24e50513          	add	a0,a0,590 # 80008400 <etext+0x400>
    800021ba:	b779                	j	80002148 <SysNumToName+0x26>
            return "uptime";
    800021bc:	00006517          	auipc	a0,0x6
    800021c0:	24c50513          	add	a0,a0,588 # 80008408 <etext+0x408>
    800021c4:	b751                	j	80002148 <SysNumToName+0x26>
            return "open";
    800021c6:	00006517          	auipc	a0,0x6
    800021ca:	24a50513          	add	a0,a0,586 # 80008410 <etext+0x410>
    800021ce:	bfad                	j	80002148 <SysNumToName+0x26>
            return "write";
    800021d0:	00006517          	auipc	a0,0x6
    800021d4:	24850513          	add	a0,a0,584 # 80008418 <etext+0x418>
    800021d8:	bf85                	j	80002148 <SysNumToName+0x26>
            return "mknod";
    800021da:	00006517          	auipc	a0,0x6
    800021de:	24650513          	add	a0,a0,582 # 80008420 <etext+0x420>
    800021e2:	b79d                	j	80002148 <SysNumToName+0x26>
            return "unlink";
    800021e4:	00006517          	auipc	a0,0x6
    800021e8:	24450513          	add	a0,a0,580 # 80008428 <etext+0x428>
    800021ec:	bfb1                	j	80002148 <SysNumToName+0x26>
            return "link";
    800021ee:	00006517          	auipc	a0,0x6
    800021f2:	24250513          	add	a0,a0,578 # 80008430 <etext+0x430>
    800021f6:	bf89                	j	80002148 <SysNumToName+0x26>
            return "mkdir";
    800021f8:	00006517          	auipc	a0,0x6
    800021fc:	24050513          	add	a0,a0,576 # 80008438 <etext+0x438>
    80002200:	b7a1                	j	80002148 <SysNumToName+0x26>
            return "close";
    80002202:	00006517          	auipc	a0,0x6
    80002206:	23e50513          	add	a0,a0,574 # 80008440 <etext+0x440>
    8000220a:	bf3d                	j	80002148 <SysNumToName+0x26>
            return "trace";
    8000220c:	00006517          	auipc	a0,0x6
    80002210:	23c50513          	add	a0,a0,572 # 80008448 <etext+0x448>
    80002214:	bf15                	j	80002148 <SysNumToName+0x26>
            return "sysinfo";
    80002216:	00006517          	auipc	a0,0x6
    8000221a:	23a50513          	add	a0,a0,570 # 80008450 <etext+0x450>
    8000221e:	b72d                	j	80002148 <SysNumToName+0x26>
            return "Unknown";
    80002220:	00006517          	auipc	a0,0x6
    80002224:	23850513          	add	a0,a0,568 # 80008458 <etext+0x458>
    80002228:	b705                	j	80002148 <SysNumToName+0x26>
    switch (value) {
    8000222a:	00006517          	auipc	a0,0x6
    8000222e:	18650513          	add	a0,a0,390 # 800083b0 <etext+0x3b0>
    80002232:	bf19                	j	80002148 <SysNumToName+0x26>

0000000080002234 <syscall>:

void
syscall(void)
{
    80002234:	7179                	add	sp,sp,-48
    80002236:	f406                	sd	ra,40(sp)
    80002238:	f022                	sd	s0,32(sp)
    8000223a:	ec26                	sd	s1,24(sp)
    8000223c:	e84a                	sd	s2,16(sp)
    8000223e:	e44e                	sd	s3,8(sp)
    80002240:	1800                	add	s0,sp,48
  int num;
  struct proc *p = myproc();
    80002242:	fffff097          	auipc	ra,0xfffff
    80002246:	d0e080e7          	jalr	-754(ra) # 80000f50 <myproc>
    8000224a:	84aa                	mv	s1,a0

  num = p->trapframe->a7;
    8000224c:	05853983          	ld	s3,88(a0)
    80002250:	0a89b783          	ld	a5,168(s3)
    80002254:	0007891b          	sext.w	s2,a5
  // num = * (int * ) 0;
  if(num > 0 && num < NELEM(syscalls) && syscalls[num]) {
    80002258:	37fd                	addw	a5,a5,-1
    8000225a:	4759                	li	a4,22
    8000225c:	04f76d63          	bltu	a4,a5,800022b6 <syscall+0x82>
    80002260:	00391713          	sll	a4,s2,0x3
    80002264:	00006797          	auipc	a5,0x6
    80002268:	67c78793          	add	a5,a5,1660 # 800088e0 <syscalls>
    8000226c:	97ba                	add	a5,a5,a4
    8000226e:	639c                	ld	a5,0(a5)
    80002270:	c3b9                	beqz	a5,800022b6 <syscall+0x82>
    // Use num to lookup the system call function for num, call it,
    // and store its return value in p->trapframe->a0
    p->trapframe->a0 = syscalls[num]();
    80002272:	9782                	jalr	a5
    80002274:	06a9b823          	sd	a0,112(s3)

    int t = (p->mask >> num) % 2;
    80002278:	58d8                	lw	a4,52(s1)
    8000227a:	412757bb          	sraw	a5,a4,s2
    8000227e:	01f7571b          	srlw	a4,a4,0x1f
    80002282:	9fb9                	addw	a5,a5,a4
    80002284:	8b85                	and	a5,a5,1
    if(t == 1) {
    80002286:	9f99                	subw	a5,a5,a4
    80002288:	4705                	li	a4,1
    8000228a:	04e79563          	bne	a5,a4,800022d4 <syscall+0xa0>
      printf("%d: syscall %s -> %d\n", p->pid, SysNumToName(num), p->trapframe->a0);
    8000228e:	0304a983          	lw	s3,48(s1)
    80002292:	854a                	mv	a0,s2
    80002294:	00000097          	auipc	ra,0x0
    80002298:	e8e080e7          	jalr	-370(ra) # 80002122 <SysNumToName>
    8000229c:	862a                	mv	a2,a0
    8000229e:	6cbc                	ld	a5,88(s1)
    800022a0:	7bb4                	ld	a3,112(a5)
    800022a2:	85ce                	mv	a1,s3
    800022a4:	00006517          	auipc	a0,0x6
    800022a8:	1bc50513          	add	a0,a0,444 # 80008460 <etext+0x460>
    800022ac:	00004097          	auipc	ra,0x4
    800022b0:	d90080e7          	jalr	-624(ra) # 8000603c <printf>
    800022b4:	a005                	j	800022d4 <syscall+0xa0>
    }

  } else {
    printf("%d %s: unknown sys call %d\n",
    800022b6:	86ca                	mv	a3,s2
    800022b8:	15848613          	add	a2,s1,344
    800022bc:	588c                	lw	a1,48(s1)
    800022be:	00006517          	auipc	a0,0x6
    800022c2:	1ba50513          	add	a0,a0,442 # 80008478 <etext+0x478>
    800022c6:	00004097          	auipc	ra,0x4
    800022ca:	d76080e7          	jalr	-650(ra) # 8000603c <printf>
            p->pid, p->name, num);
    p->trapframe->a0 = -1;
    800022ce:	6cbc                	ld	a5,88(s1)
    800022d0:	577d                	li	a4,-1
    800022d2:	fbb8                	sd	a4,112(a5)
  }
}
    800022d4:	70a2                	ld	ra,40(sp)
    800022d6:	7402                	ld	s0,32(sp)
    800022d8:	64e2                	ld	s1,24(sp)
    800022da:	6942                	ld	s2,16(sp)
    800022dc:	69a2                	ld	s3,8(sp)
    800022de:	6145                	add	sp,sp,48
    800022e0:	8082                	ret

00000000800022e2 <sys_exit>:
#include "proc.h"
#include "sysinfo.h"

uint64
sys_exit(void)
{
    800022e2:	1101                	add	sp,sp,-32
    800022e4:	ec06                	sd	ra,24(sp)
    800022e6:	e822                	sd	s0,16(sp)
    800022e8:	1000                	add	s0,sp,32
  int n;
  argint(0, &n);
    800022ea:	fec40593          	add	a1,s0,-20
    800022ee:	4501                	li	a0,0
    800022f0:	00000097          	auipc	ra,0x0
    800022f4:	dba080e7          	jalr	-582(ra) # 800020aa <argint>
  exit(n);
    800022f8:	fec42503          	lw	a0,-20(s0)
    800022fc:	fffff097          	auipc	ra,0xfffff
    80002300:	43e080e7          	jalr	1086(ra) # 8000173a <exit>
  return 0;  // not reached
}
    80002304:	4501                	li	a0,0
    80002306:	60e2                	ld	ra,24(sp)
    80002308:	6442                	ld	s0,16(sp)
    8000230a:	6105                	add	sp,sp,32
    8000230c:	8082                	ret

000000008000230e <sys_getpid>:

uint64
sys_getpid(void)
{
    8000230e:	1141                	add	sp,sp,-16
    80002310:	e406                	sd	ra,8(sp)
    80002312:	e022                	sd	s0,0(sp)
    80002314:	0800                	add	s0,sp,16
  return myproc()->pid;
    80002316:	fffff097          	auipc	ra,0xfffff
    8000231a:	c3a080e7          	jalr	-966(ra) # 80000f50 <myproc>
}
    8000231e:	5908                	lw	a0,48(a0)
    80002320:	60a2                	ld	ra,8(sp)
    80002322:	6402                	ld	s0,0(sp)
    80002324:	0141                	add	sp,sp,16
    80002326:	8082                	ret

0000000080002328 <sys_fork>:

uint64
sys_fork(void)
{
    80002328:	1141                	add	sp,sp,-16
    8000232a:	e406                	sd	ra,8(sp)
    8000232c:	e022                	sd	s0,0(sp)
    8000232e:	0800                	add	s0,sp,16
  return fork();
    80002330:	fffff097          	auipc	ra,0xfffff
    80002334:	fda080e7          	jalr	-38(ra) # 8000130a <fork>
}
    80002338:	60a2                	ld	ra,8(sp)
    8000233a:	6402                	ld	s0,0(sp)
    8000233c:	0141                	add	sp,sp,16
    8000233e:	8082                	ret

0000000080002340 <sys_wait>:

uint64
sys_wait(void)
{
    80002340:	1101                	add	sp,sp,-32
    80002342:	ec06                	sd	ra,24(sp)
    80002344:	e822                	sd	s0,16(sp)
    80002346:	1000                	add	s0,sp,32
  uint64 p;
  argaddr(0, &p);
    80002348:	fe840593          	add	a1,s0,-24
    8000234c:	4501                	li	a0,0
    8000234e:	00000097          	auipc	ra,0x0
    80002352:	d7c080e7          	jalr	-644(ra) # 800020ca <argaddr>
  return wait(p);
    80002356:	fe843503          	ld	a0,-24(s0)
    8000235a:	fffff097          	auipc	ra,0xfffff
    8000235e:	586080e7          	jalr	1414(ra) # 800018e0 <wait>
}
    80002362:	60e2                	ld	ra,24(sp)
    80002364:	6442                	ld	s0,16(sp)
    80002366:	6105                	add	sp,sp,32
    80002368:	8082                	ret

000000008000236a <sys_sbrk>:

uint64
sys_sbrk(void)
{
    8000236a:	7179                	add	sp,sp,-48
    8000236c:	f406                	sd	ra,40(sp)
    8000236e:	f022                	sd	s0,32(sp)
    80002370:	ec26                	sd	s1,24(sp)
    80002372:	1800                	add	s0,sp,48
  uint64 addr;
  int n;

  argint(0, &n);
    80002374:	fdc40593          	add	a1,s0,-36
    80002378:	4501                	li	a0,0
    8000237a:	00000097          	auipc	ra,0x0
    8000237e:	d30080e7          	jalr	-720(ra) # 800020aa <argint>
  addr = myproc()->sz;
    80002382:	fffff097          	auipc	ra,0xfffff
    80002386:	bce080e7          	jalr	-1074(ra) # 80000f50 <myproc>
    8000238a:	6524                	ld	s1,72(a0)
  if(growproc(n) < 0)
    8000238c:	fdc42503          	lw	a0,-36(s0)
    80002390:	fffff097          	auipc	ra,0xfffff
    80002394:	f1e080e7          	jalr	-226(ra) # 800012ae <growproc>
    80002398:	00054863          	bltz	a0,800023a8 <sys_sbrk+0x3e>
    return -1;
  return addr;
}
    8000239c:	8526                	mv	a0,s1
    8000239e:	70a2                	ld	ra,40(sp)
    800023a0:	7402                	ld	s0,32(sp)
    800023a2:	64e2                	ld	s1,24(sp)
    800023a4:	6145                	add	sp,sp,48
    800023a6:	8082                	ret
    return -1;
    800023a8:	54fd                	li	s1,-1
    800023aa:	bfcd                	j	8000239c <sys_sbrk+0x32>

00000000800023ac <sys_sleep>:

uint64
sys_sleep(void)
{
    800023ac:	7139                	add	sp,sp,-64
    800023ae:	fc06                	sd	ra,56(sp)
    800023b0:	f822                	sd	s0,48(sp)
    800023b2:	f04a                	sd	s2,32(sp)
    800023b4:	0080                	add	s0,sp,64
  int n;
  uint ticks0;

  argint(0, &n);
    800023b6:	fcc40593          	add	a1,s0,-52
    800023ba:	4501                	li	a0,0
    800023bc:	00000097          	auipc	ra,0x0
    800023c0:	cee080e7          	jalr	-786(ra) # 800020aa <argint>
  if(n < 0)
    800023c4:	fcc42783          	lw	a5,-52(s0)
    800023c8:	0807c163          	bltz	a5,8000244a <sys_sleep+0x9e>
    n = 0;
  acquire(&tickslock);
    800023cc:	0000f517          	auipc	a0,0xf
    800023d0:	ea450513          	add	a0,a0,-348 # 80011270 <tickslock>
    800023d4:	00004097          	auipc	ra,0x4
    800023d8:	198080e7          	jalr	408(ra) # 8000656c <acquire>
  ticks0 = ticks;
    800023dc:	00009917          	auipc	s2,0x9
    800023e0:	02c92903          	lw	s2,44(s2) # 8000b408 <ticks>
  while(ticks - ticks0 < n){
    800023e4:	fcc42783          	lw	a5,-52(s0)
    800023e8:	c3b9                	beqz	a5,8000242e <sys_sleep+0x82>
    800023ea:	f426                	sd	s1,40(sp)
    800023ec:	ec4e                	sd	s3,24(sp)
    if(killed(myproc())){
      release(&tickslock);
      return -1;
    }
    sleep(&ticks, &tickslock);
    800023ee:	0000f997          	auipc	s3,0xf
    800023f2:	e8298993          	add	s3,s3,-382 # 80011270 <tickslock>
    800023f6:	00009497          	auipc	s1,0x9
    800023fa:	01248493          	add	s1,s1,18 # 8000b408 <ticks>
    if(killed(myproc())){
    800023fe:	fffff097          	auipc	ra,0xfffff
    80002402:	b52080e7          	jalr	-1198(ra) # 80000f50 <myproc>
    80002406:	fffff097          	auipc	ra,0xfffff
    8000240a:	4a8080e7          	jalr	1192(ra) # 800018ae <killed>
    8000240e:	e129                	bnez	a0,80002450 <sys_sleep+0xa4>
    sleep(&ticks, &tickslock);
    80002410:	85ce                	mv	a1,s3
    80002412:	8526                	mv	a0,s1
    80002414:	fffff097          	auipc	ra,0xfffff
    80002418:	1f2080e7          	jalr	498(ra) # 80001606 <sleep>
  while(ticks - ticks0 < n){
    8000241c:	409c                	lw	a5,0(s1)
    8000241e:	412787bb          	subw	a5,a5,s2
    80002422:	fcc42703          	lw	a4,-52(s0)
    80002426:	fce7ece3          	bltu	a5,a4,800023fe <sys_sleep+0x52>
    8000242a:	74a2                	ld	s1,40(sp)
    8000242c:	69e2                	ld	s3,24(sp)
  }
  release(&tickslock);
    8000242e:	0000f517          	auipc	a0,0xf
    80002432:	e4250513          	add	a0,a0,-446 # 80011270 <tickslock>
    80002436:	00004097          	auipc	ra,0x4
    8000243a:	1ea080e7          	jalr	490(ra) # 80006620 <release>
  return 0;
    8000243e:	4501                	li	a0,0
}
    80002440:	70e2                	ld	ra,56(sp)
    80002442:	7442                	ld	s0,48(sp)
    80002444:	7902                	ld	s2,32(sp)
    80002446:	6121                	add	sp,sp,64
    80002448:	8082                	ret
    n = 0;
    8000244a:	fc042623          	sw	zero,-52(s0)
    8000244e:	bfbd                	j	800023cc <sys_sleep+0x20>
      release(&tickslock);
    80002450:	0000f517          	auipc	a0,0xf
    80002454:	e2050513          	add	a0,a0,-480 # 80011270 <tickslock>
    80002458:	00004097          	auipc	ra,0x4
    8000245c:	1c8080e7          	jalr	456(ra) # 80006620 <release>
      return -1;
    80002460:	557d                	li	a0,-1
    80002462:	74a2                	ld	s1,40(sp)
    80002464:	69e2                	ld	s3,24(sp)
    80002466:	bfe9                	j	80002440 <sys_sleep+0x94>

0000000080002468 <sys_kill>:

uint64
sys_kill(void)
{
    80002468:	1101                	add	sp,sp,-32
    8000246a:	ec06                	sd	ra,24(sp)
    8000246c:	e822                	sd	s0,16(sp)
    8000246e:	1000                	add	s0,sp,32
  int pid;

  argint(0, &pid);
    80002470:	fec40593          	add	a1,s0,-20
    80002474:	4501                	li	a0,0
    80002476:	00000097          	auipc	ra,0x0
    8000247a:	c34080e7          	jalr	-972(ra) # 800020aa <argint>
  return kill(pid);
    8000247e:	fec42503          	lw	a0,-20(s0)
    80002482:	fffff097          	auipc	ra,0xfffff
    80002486:	38e080e7          	jalr	910(ra) # 80001810 <kill>
}
    8000248a:	60e2                	ld	ra,24(sp)
    8000248c:	6442                	ld	s0,16(sp)
    8000248e:	6105                	add	sp,sp,32
    80002490:	8082                	ret

0000000080002492 <sys_uptime>:

// return how many clock tick interrupts have occurred
// since start.
uint64
sys_uptime(void)
{
    80002492:	1101                	add	sp,sp,-32
    80002494:	ec06                	sd	ra,24(sp)
    80002496:	e822                	sd	s0,16(sp)
    80002498:	e426                	sd	s1,8(sp)
    8000249a:	1000                	add	s0,sp,32
  uint xticks;

  acquire(&tickslock);
    8000249c:	0000f517          	auipc	a0,0xf
    800024a0:	dd450513          	add	a0,a0,-556 # 80011270 <tickslock>
    800024a4:	00004097          	auipc	ra,0x4
    800024a8:	0c8080e7          	jalr	200(ra) # 8000656c <acquire>
  xticks = ticks;
    800024ac:	00009497          	auipc	s1,0x9
    800024b0:	f5c4a483          	lw	s1,-164(s1) # 8000b408 <ticks>
  release(&tickslock);
    800024b4:	0000f517          	auipc	a0,0xf
    800024b8:	dbc50513          	add	a0,a0,-580 # 80011270 <tickslock>
    800024bc:	00004097          	auipc	ra,0x4
    800024c0:	164080e7          	jalr	356(ra) # 80006620 <release>
  return xticks;
}
    800024c4:	02049513          	sll	a0,s1,0x20
    800024c8:	9101                	srl	a0,a0,0x20
    800024ca:	60e2                	ld	ra,24(sp)
    800024cc:	6442                	ld	s0,16(sp)
    800024ce:	64a2                	ld	s1,8(sp)
    800024d0:	6105                	add	sp,sp,32
    800024d2:	8082                	ret

00000000800024d4 <sys_trace>:


uint64
sys_trace(void)
{
    800024d4:	7179                	add	sp,sp,-48
    800024d6:	f406                	sd	ra,40(sp)
    800024d8:	f022                	sd	s0,32(sp)
    800024da:	ec26                	sd	s1,24(sp)
    800024dc:	1800                	add	s0,sp,48
  int num;
  argint(0, &num);
    800024de:	fdc40593          	add	a1,s0,-36
    800024e2:	4501                	li	a0,0
    800024e4:	00000097          	auipc	ra,0x0
    800024e8:	bc6080e7          	jalr	-1082(ra) # 800020aa <argint>

  int t = num;
    800024ec:	fdc42483          	lw	s1,-36(s0)
  struct proc *p = myproc();
    800024f0:	fffff097          	auipc	ra,0xfffff
    800024f4:	a60080e7          	jalr	-1440(ra) # 80000f50 <myproc>
  p->mask = t;
    800024f8:	d944                	sw	s1,52(a0)
  }
  else {
      printf("trace mask set failed!");
      return -1;
  }
}
    800024fa:	4501                	li	a0,0
    800024fc:	70a2                	ld	ra,40(sp)
    800024fe:	7402                	ld	s0,32(sp)
    80002500:	64e2                	ld	s1,24(sp)
    80002502:	6145                	add	sp,sp,48
    80002504:	8082                	ret

0000000080002506 <sys_sysinfo>:

uint64
sys_sysinfo(void){
    80002506:	7139                	add	sp,sp,-64
    80002508:	fc06                	sd	ra,56(sp)
    8000250a:	f822                	sd	s0,48(sp)
    8000250c:	f426                	sd	s1,40(sp)
    8000250e:	0080                	add	s0,sp,64
    struct proc *p = myproc();
    80002510:	fffff097          	auipc	ra,0xfffff
    80002514:	a40080e7          	jalr	-1472(ra) # 80000f50 <myproc>
    80002518:	84aa                	mv	s1,a0
    struct sysinfo info;

    uint64 addr;
    argaddr(0, &addr);
    8000251a:	fc840593          	add	a1,s0,-56
    8000251e:	4501                	li	a0,0
    80002520:	00000097          	auipc	ra,0x0
    80002524:	baa080e7          	jalr	-1110(ra) # 800020ca <argaddr>

    info.freemem = fmem();
    80002528:	ffffe097          	auipc	ra,0xffffe
    8000252c:	c52080e7          	jalr	-942(ra) # 8000017a <fmem>
    80002530:	fca43823          	sd	a0,-48(s0)
    info.nproc = numofproc();
    80002534:	fffff097          	auipc	ra,0xfffff
    80002538:	636080e7          	jalr	1590(ra) # 80001b6a <numofproc>
    8000253c:	fca43c23          	sd	a0,-40(s0)

    if(copyout(p->pagetable, addr, (char *)&info, sizeof(info)) < 0)
    80002540:	46c1                	li	a3,16
    80002542:	fd040613          	add	a2,s0,-48
    80002546:	fc843583          	ld	a1,-56(s0)
    8000254a:	68a8                	ld	a0,80(s1)
    8000254c:	ffffe097          	auipc	ra,0xffffe
    80002550:	64a080e7          	jalr	1610(ra) # 80000b96 <copyout>
      return -1;
    return 0;

}
    80002554:	957d                	sra	a0,a0,0x3f
    80002556:	70e2                	ld	ra,56(sp)
    80002558:	7442                	ld	s0,48(sp)
    8000255a:	74a2                	ld	s1,40(sp)
    8000255c:	6121                	add	sp,sp,64
    8000255e:	8082                	ret

0000000080002560 <binit>:
  struct buf head;
} bcache;

void
binit(void)
{
    80002560:	7179                	add	sp,sp,-48
    80002562:	f406                	sd	ra,40(sp)
    80002564:	f022                	sd	s0,32(sp)
    80002566:	ec26                	sd	s1,24(sp)
    80002568:	e84a                	sd	s2,16(sp)
    8000256a:	e44e                	sd	s3,8(sp)
    8000256c:	e052                	sd	s4,0(sp)
    8000256e:	1800                	add	s0,sp,48
  struct buf *b;

  initlock(&bcache.lock, "bcache");
    80002570:	00006597          	auipc	a1,0x6
    80002574:	f2858593          	add	a1,a1,-216 # 80008498 <etext+0x498>
    80002578:	0000f517          	auipc	a0,0xf
    8000257c:	d1050513          	add	a0,a0,-752 # 80011288 <bcache>
    80002580:	00004097          	auipc	ra,0x4
    80002584:	f5c080e7          	jalr	-164(ra) # 800064dc <initlock>

  // Create linked list of buffers
  bcache.head.prev = &bcache.head;
    80002588:	00017797          	auipc	a5,0x17
    8000258c:	d0078793          	add	a5,a5,-768 # 80019288 <bcache+0x8000>
    80002590:	00017717          	auipc	a4,0x17
    80002594:	f6070713          	add	a4,a4,-160 # 800194f0 <bcache+0x8268>
    80002598:	2ae7b823          	sd	a4,688(a5)
  bcache.head.next = &bcache.head;
    8000259c:	2ae7bc23          	sd	a4,696(a5)
  for(b = bcache.buf; b < bcache.buf+NBUF; b++){
    800025a0:	0000f497          	auipc	s1,0xf
    800025a4:	d0048493          	add	s1,s1,-768 # 800112a0 <bcache+0x18>
    b->next = bcache.head.next;
    800025a8:	893e                	mv	s2,a5
    b->prev = &bcache.head;
    800025aa:	89ba                	mv	s3,a4
    initsleeplock(&b->lock, "buffer");
    800025ac:	00006a17          	auipc	s4,0x6
    800025b0:	ef4a0a13          	add	s4,s4,-268 # 800084a0 <etext+0x4a0>
    b->next = bcache.head.next;
    800025b4:	2b893783          	ld	a5,696(s2)
    800025b8:	e8bc                	sd	a5,80(s1)
    b->prev = &bcache.head;
    800025ba:	0534b423          	sd	s3,72(s1)
    initsleeplock(&b->lock, "buffer");
    800025be:	85d2                	mv	a1,s4
    800025c0:	01048513          	add	a0,s1,16
    800025c4:	00001097          	auipc	ra,0x1
    800025c8:	4e8080e7          	jalr	1256(ra) # 80003aac <initsleeplock>
    bcache.head.next->prev = b;
    800025cc:	2b893783          	ld	a5,696(s2)
    800025d0:	e7a4                	sd	s1,72(a5)
    bcache.head.next = b;
    800025d2:	2a993c23          	sd	s1,696(s2)
  for(b = bcache.buf; b < bcache.buf+NBUF; b++){
    800025d6:	45848493          	add	s1,s1,1112
    800025da:	fd349de3          	bne	s1,s3,800025b4 <binit+0x54>
  }
}
    800025de:	70a2                	ld	ra,40(sp)
    800025e0:	7402                	ld	s0,32(sp)
    800025e2:	64e2                	ld	s1,24(sp)
    800025e4:	6942                	ld	s2,16(sp)
    800025e6:	69a2                	ld	s3,8(sp)
    800025e8:	6a02                	ld	s4,0(sp)
    800025ea:	6145                	add	sp,sp,48
    800025ec:	8082                	ret

00000000800025ee <bread>:
}

// Return a locked buf with the contents of the indicated block.
struct buf*
bread(uint dev, uint blockno)
{
    800025ee:	7179                	add	sp,sp,-48
    800025f0:	f406                	sd	ra,40(sp)
    800025f2:	f022                	sd	s0,32(sp)
    800025f4:	ec26                	sd	s1,24(sp)
    800025f6:	e84a                	sd	s2,16(sp)
    800025f8:	e44e                	sd	s3,8(sp)
    800025fa:	1800                	add	s0,sp,48
    800025fc:	892a                	mv	s2,a0
    800025fe:	89ae                	mv	s3,a1
  acquire(&bcache.lock);
    80002600:	0000f517          	auipc	a0,0xf
    80002604:	c8850513          	add	a0,a0,-888 # 80011288 <bcache>
    80002608:	00004097          	auipc	ra,0x4
    8000260c:	f64080e7          	jalr	-156(ra) # 8000656c <acquire>
  for(b = bcache.head.next; b != &bcache.head; b = b->next){
    80002610:	00017497          	auipc	s1,0x17
    80002614:	f304b483          	ld	s1,-208(s1) # 80019540 <bcache+0x82b8>
    80002618:	00017797          	auipc	a5,0x17
    8000261c:	ed878793          	add	a5,a5,-296 # 800194f0 <bcache+0x8268>
    80002620:	02f48f63          	beq	s1,a5,8000265e <bread+0x70>
    80002624:	873e                	mv	a4,a5
    80002626:	a021                	j	8000262e <bread+0x40>
    80002628:	68a4                	ld	s1,80(s1)
    8000262a:	02e48a63          	beq	s1,a4,8000265e <bread+0x70>
    if(b->dev == dev && b->blockno == blockno){
    8000262e:	449c                	lw	a5,8(s1)
    80002630:	ff279ce3          	bne	a5,s2,80002628 <bread+0x3a>
    80002634:	44dc                	lw	a5,12(s1)
    80002636:	ff3799e3          	bne	a5,s3,80002628 <bread+0x3a>
      b->refcnt++;
    8000263a:	40bc                	lw	a5,64(s1)
    8000263c:	2785                	addw	a5,a5,1
    8000263e:	c0bc                	sw	a5,64(s1)
      release(&bcache.lock);
    80002640:	0000f517          	auipc	a0,0xf
    80002644:	c4850513          	add	a0,a0,-952 # 80011288 <bcache>
    80002648:	00004097          	auipc	ra,0x4
    8000264c:	fd8080e7          	jalr	-40(ra) # 80006620 <release>
      acquiresleep(&b->lock);
    80002650:	01048513          	add	a0,s1,16
    80002654:	00001097          	auipc	ra,0x1
    80002658:	492080e7          	jalr	1170(ra) # 80003ae6 <acquiresleep>
      return b;
    8000265c:	a8b9                	j	800026ba <bread+0xcc>
  for(b = bcache.head.prev; b != &bcache.head; b = b->prev){
    8000265e:	00017497          	auipc	s1,0x17
    80002662:	eda4b483          	ld	s1,-294(s1) # 80019538 <bcache+0x82b0>
    80002666:	00017797          	auipc	a5,0x17
    8000266a:	e8a78793          	add	a5,a5,-374 # 800194f0 <bcache+0x8268>
    8000266e:	00f48863          	beq	s1,a5,8000267e <bread+0x90>
    80002672:	873e                	mv	a4,a5
    if(b->refcnt == 0) {
    80002674:	40bc                	lw	a5,64(s1)
    80002676:	cf81                	beqz	a5,8000268e <bread+0xa0>
  for(b = bcache.head.prev; b != &bcache.head; b = b->prev){
    80002678:	64a4                	ld	s1,72(s1)
    8000267a:	fee49de3          	bne	s1,a4,80002674 <bread+0x86>
  panic("bget: no buffers");
    8000267e:	00006517          	auipc	a0,0x6
    80002682:	e2a50513          	add	a0,a0,-470 # 800084a8 <etext+0x4a8>
    80002686:	00004097          	auipc	ra,0x4
    8000268a:	96c080e7          	jalr	-1684(ra) # 80005ff2 <panic>
      b->dev = dev;
    8000268e:	0124a423          	sw	s2,8(s1)
      b->blockno = blockno;
    80002692:	0134a623          	sw	s3,12(s1)
      b->valid = 0;
    80002696:	0004a023          	sw	zero,0(s1)
      b->refcnt = 1;
    8000269a:	4785                	li	a5,1
    8000269c:	c0bc                	sw	a5,64(s1)
      release(&bcache.lock);
    8000269e:	0000f517          	auipc	a0,0xf
    800026a2:	bea50513          	add	a0,a0,-1046 # 80011288 <bcache>
    800026a6:	00004097          	auipc	ra,0x4
    800026aa:	f7a080e7          	jalr	-134(ra) # 80006620 <release>
      acquiresleep(&b->lock);
    800026ae:	01048513          	add	a0,s1,16
    800026b2:	00001097          	auipc	ra,0x1
    800026b6:	434080e7          	jalr	1076(ra) # 80003ae6 <acquiresleep>
  struct buf *b;

  b = bget(dev, blockno);
  if(!b->valid) {
    800026ba:	409c                	lw	a5,0(s1)
    800026bc:	cb89                	beqz	a5,800026ce <bread+0xe0>
    virtio_disk_rw(b, 0);
    b->valid = 1;
  }
  return b;
}
    800026be:	8526                	mv	a0,s1
    800026c0:	70a2                	ld	ra,40(sp)
    800026c2:	7402                	ld	s0,32(sp)
    800026c4:	64e2                	ld	s1,24(sp)
    800026c6:	6942                	ld	s2,16(sp)
    800026c8:	69a2                	ld	s3,8(sp)
    800026ca:	6145                	add	sp,sp,48
    800026cc:	8082                	ret
    virtio_disk_rw(b, 0);
    800026ce:	4581                	li	a1,0
    800026d0:	8526                	mv	a0,s1
    800026d2:	00003097          	auipc	ra,0x3
    800026d6:	0f6080e7          	jalr	246(ra) # 800057c8 <virtio_disk_rw>
    b->valid = 1;
    800026da:	4785                	li	a5,1
    800026dc:	c09c                	sw	a5,0(s1)
  return b;
    800026de:	b7c5                	j	800026be <bread+0xd0>

00000000800026e0 <bwrite>:

// Write b's contents to disk.  Must be locked.
void
bwrite(struct buf *b)
{
    800026e0:	1101                	add	sp,sp,-32
    800026e2:	ec06                	sd	ra,24(sp)
    800026e4:	e822                	sd	s0,16(sp)
    800026e6:	e426                	sd	s1,8(sp)
    800026e8:	1000                	add	s0,sp,32
    800026ea:	84aa                	mv	s1,a0
  if(!holdingsleep(&b->lock))
    800026ec:	0541                	add	a0,a0,16
    800026ee:	00001097          	auipc	ra,0x1
    800026f2:	492080e7          	jalr	1170(ra) # 80003b80 <holdingsleep>
    800026f6:	cd01                	beqz	a0,8000270e <bwrite+0x2e>
    panic("bwrite");
  virtio_disk_rw(b, 1);
    800026f8:	4585                	li	a1,1
    800026fa:	8526                	mv	a0,s1
    800026fc:	00003097          	auipc	ra,0x3
    80002700:	0cc080e7          	jalr	204(ra) # 800057c8 <virtio_disk_rw>
}
    80002704:	60e2                	ld	ra,24(sp)
    80002706:	6442                	ld	s0,16(sp)
    80002708:	64a2                	ld	s1,8(sp)
    8000270a:	6105                	add	sp,sp,32
    8000270c:	8082                	ret
    panic("bwrite");
    8000270e:	00006517          	auipc	a0,0x6
    80002712:	db250513          	add	a0,a0,-590 # 800084c0 <etext+0x4c0>
    80002716:	00004097          	auipc	ra,0x4
    8000271a:	8dc080e7          	jalr	-1828(ra) # 80005ff2 <panic>

000000008000271e <brelse>:

// Release a locked buffer.
// Move to the head of the most-recently-used list.
void
brelse(struct buf *b)
{
    8000271e:	1101                	add	sp,sp,-32
    80002720:	ec06                	sd	ra,24(sp)
    80002722:	e822                	sd	s0,16(sp)
    80002724:	e426                	sd	s1,8(sp)
    80002726:	e04a                	sd	s2,0(sp)
    80002728:	1000                	add	s0,sp,32
    8000272a:	84aa                	mv	s1,a0
  if(!holdingsleep(&b->lock))
    8000272c:	01050913          	add	s2,a0,16
    80002730:	854a                	mv	a0,s2
    80002732:	00001097          	auipc	ra,0x1
    80002736:	44e080e7          	jalr	1102(ra) # 80003b80 <holdingsleep>
    8000273a:	c925                	beqz	a0,800027aa <brelse+0x8c>
    panic("brelse");

  releasesleep(&b->lock);
    8000273c:	854a                	mv	a0,s2
    8000273e:	00001097          	auipc	ra,0x1
    80002742:	3fe080e7          	jalr	1022(ra) # 80003b3c <releasesleep>

  acquire(&bcache.lock);
    80002746:	0000f517          	auipc	a0,0xf
    8000274a:	b4250513          	add	a0,a0,-1214 # 80011288 <bcache>
    8000274e:	00004097          	auipc	ra,0x4
    80002752:	e1e080e7          	jalr	-482(ra) # 8000656c <acquire>
  b->refcnt--;
    80002756:	40bc                	lw	a5,64(s1)
    80002758:	37fd                	addw	a5,a5,-1
    8000275a:	0007871b          	sext.w	a4,a5
    8000275e:	c0bc                	sw	a5,64(s1)
  if (b->refcnt == 0) {
    80002760:	e71d                	bnez	a4,8000278e <brelse+0x70>
    // no one is waiting for it.
    b->next->prev = b->prev;
    80002762:	68b8                	ld	a4,80(s1)
    80002764:	64bc                	ld	a5,72(s1)
    80002766:	e73c                	sd	a5,72(a4)
    b->prev->next = b->next;
    80002768:	68b8                	ld	a4,80(s1)
    8000276a:	ebb8                	sd	a4,80(a5)
    b->next = bcache.head.next;
    8000276c:	00017797          	auipc	a5,0x17
    80002770:	b1c78793          	add	a5,a5,-1252 # 80019288 <bcache+0x8000>
    80002774:	2b87b703          	ld	a4,696(a5)
    80002778:	e8b8                	sd	a4,80(s1)
    b->prev = &bcache.head;
    8000277a:	00017717          	auipc	a4,0x17
    8000277e:	d7670713          	add	a4,a4,-650 # 800194f0 <bcache+0x8268>
    80002782:	e4b8                	sd	a4,72(s1)
    bcache.head.next->prev = b;
    80002784:	2b87b703          	ld	a4,696(a5)
    80002788:	e724                	sd	s1,72(a4)
    bcache.head.next = b;
    8000278a:	2a97bc23          	sd	s1,696(a5)
  }
  
  release(&bcache.lock);
    8000278e:	0000f517          	auipc	a0,0xf
    80002792:	afa50513          	add	a0,a0,-1286 # 80011288 <bcache>
    80002796:	00004097          	auipc	ra,0x4
    8000279a:	e8a080e7          	jalr	-374(ra) # 80006620 <release>
}
    8000279e:	60e2                	ld	ra,24(sp)
    800027a0:	6442                	ld	s0,16(sp)
    800027a2:	64a2                	ld	s1,8(sp)
    800027a4:	6902                	ld	s2,0(sp)
    800027a6:	6105                	add	sp,sp,32
    800027a8:	8082                	ret
    panic("brelse");
    800027aa:	00006517          	auipc	a0,0x6
    800027ae:	d1e50513          	add	a0,a0,-738 # 800084c8 <etext+0x4c8>
    800027b2:	00004097          	auipc	ra,0x4
    800027b6:	840080e7          	jalr	-1984(ra) # 80005ff2 <panic>

00000000800027ba <bpin>:

void
bpin(struct buf *b) {
    800027ba:	1101                	add	sp,sp,-32
    800027bc:	ec06                	sd	ra,24(sp)
    800027be:	e822                	sd	s0,16(sp)
    800027c0:	e426                	sd	s1,8(sp)
    800027c2:	1000                	add	s0,sp,32
    800027c4:	84aa                	mv	s1,a0
  acquire(&bcache.lock);
    800027c6:	0000f517          	auipc	a0,0xf
    800027ca:	ac250513          	add	a0,a0,-1342 # 80011288 <bcache>
    800027ce:	00004097          	auipc	ra,0x4
    800027d2:	d9e080e7          	jalr	-610(ra) # 8000656c <acquire>
  b->refcnt++;
    800027d6:	40bc                	lw	a5,64(s1)
    800027d8:	2785                	addw	a5,a5,1
    800027da:	c0bc                	sw	a5,64(s1)
  release(&bcache.lock);
    800027dc:	0000f517          	auipc	a0,0xf
    800027e0:	aac50513          	add	a0,a0,-1364 # 80011288 <bcache>
    800027e4:	00004097          	auipc	ra,0x4
    800027e8:	e3c080e7          	jalr	-452(ra) # 80006620 <release>
}
    800027ec:	60e2                	ld	ra,24(sp)
    800027ee:	6442                	ld	s0,16(sp)
    800027f0:	64a2                	ld	s1,8(sp)
    800027f2:	6105                	add	sp,sp,32
    800027f4:	8082                	ret

00000000800027f6 <bunpin>:

void
bunpin(struct buf *b) {
    800027f6:	1101                	add	sp,sp,-32
    800027f8:	ec06                	sd	ra,24(sp)
    800027fa:	e822                	sd	s0,16(sp)
    800027fc:	e426                	sd	s1,8(sp)
    800027fe:	1000                	add	s0,sp,32
    80002800:	84aa                	mv	s1,a0
  acquire(&bcache.lock);
    80002802:	0000f517          	auipc	a0,0xf
    80002806:	a8650513          	add	a0,a0,-1402 # 80011288 <bcache>
    8000280a:	00004097          	auipc	ra,0x4
    8000280e:	d62080e7          	jalr	-670(ra) # 8000656c <acquire>
  b->refcnt--;
    80002812:	40bc                	lw	a5,64(s1)
    80002814:	37fd                	addw	a5,a5,-1
    80002816:	c0bc                	sw	a5,64(s1)
  release(&bcache.lock);
    80002818:	0000f517          	auipc	a0,0xf
    8000281c:	a7050513          	add	a0,a0,-1424 # 80011288 <bcache>
    80002820:	00004097          	auipc	ra,0x4
    80002824:	e00080e7          	jalr	-512(ra) # 80006620 <release>
}
    80002828:	60e2                	ld	ra,24(sp)
    8000282a:	6442                	ld	s0,16(sp)
    8000282c:	64a2                	ld	s1,8(sp)
    8000282e:	6105                	add	sp,sp,32
    80002830:	8082                	ret

0000000080002832 <bfree>:
}

// Free a disk block.
static void
bfree(int dev, uint b)
{
    80002832:	1101                	add	sp,sp,-32
    80002834:	ec06                	sd	ra,24(sp)
    80002836:	e822                	sd	s0,16(sp)
    80002838:	e426                	sd	s1,8(sp)
    8000283a:	e04a                	sd	s2,0(sp)
    8000283c:	1000                	add	s0,sp,32
    8000283e:	84ae                	mv	s1,a1
  struct buf *bp;
  int bi, m;

  bp = bread(dev, BBLOCK(b, sb));
    80002840:	00d5d59b          	srlw	a1,a1,0xd
    80002844:	00017797          	auipc	a5,0x17
    80002848:	1207a783          	lw	a5,288(a5) # 80019964 <sb+0x1c>
    8000284c:	9dbd                	addw	a1,a1,a5
    8000284e:	00000097          	auipc	ra,0x0
    80002852:	da0080e7          	jalr	-608(ra) # 800025ee <bread>
  bi = b % BPB;
  m = 1 << (bi % 8);
    80002856:	0074f713          	and	a4,s1,7
    8000285a:	4785                	li	a5,1
    8000285c:	00e797bb          	sllw	a5,a5,a4
  if((bp->data[bi/8] & m) == 0)
    80002860:	14ce                	sll	s1,s1,0x33
    80002862:	90d9                	srl	s1,s1,0x36
    80002864:	00950733          	add	a4,a0,s1
    80002868:	05874703          	lbu	a4,88(a4)
    8000286c:	00e7f6b3          	and	a3,a5,a4
    80002870:	c69d                	beqz	a3,8000289e <bfree+0x6c>
    80002872:	892a                	mv	s2,a0
    panic("freeing free block");
  bp->data[bi/8] &= ~m;
    80002874:	94aa                	add	s1,s1,a0
    80002876:	fff7c793          	not	a5,a5
    8000287a:	8f7d                	and	a4,a4,a5
    8000287c:	04e48c23          	sb	a4,88(s1)
  log_write(bp);
    80002880:	00001097          	auipc	ra,0x1
    80002884:	148080e7          	jalr	328(ra) # 800039c8 <log_write>
  brelse(bp);
    80002888:	854a                	mv	a0,s2
    8000288a:	00000097          	auipc	ra,0x0
    8000288e:	e94080e7          	jalr	-364(ra) # 8000271e <brelse>
}
    80002892:	60e2                	ld	ra,24(sp)
    80002894:	6442                	ld	s0,16(sp)
    80002896:	64a2                	ld	s1,8(sp)
    80002898:	6902                	ld	s2,0(sp)
    8000289a:	6105                	add	sp,sp,32
    8000289c:	8082                	ret
    panic("freeing free block");
    8000289e:	00006517          	auipc	a0,0x6
    800028a2:	c3250513          	add	a0,a0,-974 # 800084d0 <etext+0x4d0>
    800028a6:	00003097          	auipc	ra,0x3
    800028aa:	74c080e7          	jalr	1868(ra) # 80005ff2 <panic>

00000000800028ae <balloc>:
{
    800028ae:	711d                	add	sp,sp,-96
    800028b0:	ec86                	sd	ra,88(sp)
    800028b2:	e8a2                	sd	s0,80(sp)
    800028b4:	e4a6                	sd	s1,72(sp)
    800028b6:	1080                	add	s0,sp,96
  for(b = 0; b < sb.size; b += BPB){
    800028b8:	00017797          	auipc	a5,0x17
    800028bc:	0947a783          	lw	a5,148(a5) # 8001994c <sb+0x4>
    800028c0:	10078f63          	beqz	a5,800029de <balloc+0x130>
    800028c4:	e0ca                	sd	s2,64(sp)
    800028c6:	fc4e                	sd	s3,56(sp)
    800028c8:	f852                	sd	s4,48(sp)
    800028ca:	f456                	sd	s5,40(sp)
    800028cc:	f05a                	sd	s6,32(sp)
    800028ce:	ec5e                	sd	s7,24(sp)
    800028d0:	e862                	sd	s8,16(sp)
    800028d2:	e466                	sd	s9,8(sp)
    800028d4:	8baa                	mv	s7,a0
    800028d6:	4a81                	li	s5,0
    bp = bread(dev, BBLOCK(b, sb));
    800028d8:	00017b17          	auipc	s6,0x17
    800028dc:	070b0b13          	add	s6,s6,112 # 80019948 <sb>
    for(bi = 0; bi < BPB && b + bi < sb.size; bi++){
    800028e0:	4c01                	li	s8,0
      m = 1 << (bi % 8);
    800028e2:	4985                	li	s3,1
    for(bi = 0; bi < BPB && b + bi < sb.size; bi++){
    800028e4:	6a09                	lui	s4,0x2
  for(b = 0; b < sb.size; b += BPB){
    800028e6:	6c89                	lui	s9,0x2
    800028e8:	a061                	j	80002970 <balloc+0xc2>
        bp->data[bi/8] |= m;  // Mark block in use.
    800028ea:	97ca                	add	a5,a5,s2
    800028ec:	8e55                	or	a2,a2,a3
    800028ee:	04c78c23          	sb	a2,88(a5)
        log_write(bp);
    800028f2:	854a                	mv	a0,s2
    800028f4:	00001097          	auipc	ra,0x1
    800028f8:	0d4080e7          	jalr	212(ra) # 800039c8 <log_write>
        brelse(bp);
    800028fc:	854a                	mv	a0,s2
    800028fe:	00000097          	auipc	ra,0x0
    80002902:	e20080e7          	jalr	-480(ra) # 8000271e <brelse>
  bp = bread(dev, bno);
    80002906:	85a6                	mv	a1,s1
    80002908:	855e                	mv	a0,s7
    8000290a:	00000097          	auipc	ra,0x0
    8000290e:	ce4080e7          	jalr	-796(ra) # 800025ee <bread>
    80002912:	892a                	mv	s2,a0
  memset(bp->data, 0, BSIZE);
    80002914:	40000613          	li	a2,1024
    80002918:	4581                	li	a1,0
    8000291a:	05850513          	add	a0,a0,88
    8000291e:	ffffe097          	auipc	ra,0xffffe
    80002922:	8a6080e7          	jalr	-1882(ra) # 800001c4 <memset>
  log_write(bp);
    80002926:	854a                	mv	a0,s2
    80002928:	00001097          	auipc	ra,0x1
    8000292c:	0a0080e7          	jalr	160(ra) # 800039c8 <log_write>
  brelse(bp);
    80002930:	854a                	mv	a0,s2
    80002932:	00000097          	auipc	ra,0x0
    80002936:	dec080e7          	jalr	-532(ra) # 8000271e <brelse>
}
    8000293a:	6906                	ld	s2,64(sp)
    8000293c:	79e2                	ld	s3,56(sp)
    8000293e:	7a42                	ld	s4,48(sp)
    80002940:	7aa2                	ld	s5,40(sp)
    80002942:	7b02                	ld	s6,32(sp)
    80002944:	6be2                	ld	s7,24(sp)
    80002946:	6c42                	ld	s8,16(sp)
    80002948:	6ca2                	ld	s9,8(sp)
}
    8000294a:	8526                	mv	a0,s1
    8000294c:	60e6                	ld	ra,88(sp)
    8000294e:	6446                	ld	s0,80(sp)
    80002950:	64a6                	ld	s1,72(sp)
    80002952:	6125                	add	sp,sp,96
    80002954:	8082                	ret
    brelse(bp);
    80002956:	854a                	mv	a0,s2
    80002958:	00000097          	auipc	ra,0x0
    8000295c:	dc6080e7          	jalr	-570(ra) # 8000271e <brelse>
  for(b = 0; b < sb.size; b += BPB){
    80002960:	015c87bb          	addw	a5,s9,s5
    80002964:	00078a9b          	sext.w	s5,a5
    80002968:	004b2703          	lw	a4,4(s6)
    8000296c:	06eaf163          	bgeu	s5,a4,800029ce <balloc+0x120>
    bp = bread(dev, BBLOCK(b, sb));
    80002970:	41fad79b          	sraw	a5,s5,0x1f
    80002974:	0137d79b          	srlw	a5,a5,0x13
    80002978:	015787bb          	addw	a5,a5,s5
    8000297c:	40d7d79b          	sraw	a5,a5,0xd
    80002980:	01cb2583          	lw	a1,28(s6)
    80002984:	9dbd                	addw	a1,a1,a5
    80002986:	855e                	mv	a0,s7
    80002988:	00000097          	auipc	ra,0x0
    8000298c:	c66080e7          	jalr	-922(ra) # 800025ee <bread>
    80002990:	892a                	mv	s2,a0
    for(bi = 0; bi < BPB && b + bi < sb.size; bi++){
    80002992:	004b2503          	lw	a0,4(s6)
    80002996:	000a849b          	sext.w	s1,s5
    8000299a:	8762                	mv	a4,s8
    8000299c:	faa4fde3          	bgeu	s1,a0,80002956 <balloc+0xa8>
      m = 1 << (bi % 8);
    800029a0:	00777693          	and	a3,a4,7
    800029a4:	00d996bb          	sllw	a3,s3,a3
      if((bp->data[bi/8] & m) == 0){  // Is block free?
    800029a8:	41f7579b          	sraw	a5,a4,0x1f
    800029ac:	01d7d79b          	srlw	a5,a5,0x1d
    800029b0:	9fb9                	addw	a5,a5,a4
    800029b2:	4037d79b          	sraw	a5,a5,0x3
    800029b6:	00f90633          	add	a2,s2,a5
    800029ba:	05864603          	lbu	a2,88(a2)
    800029be:	00c6f5b3          	and	a1,a3,a2
    800029c2:	d585                	beqz	a1,800028ea <balloc+0x3c>
    for(bi = 0; bi < BPB && b + bi < sb.size; bi++){
    800029c4:	2705                	addw	a4,a4,1
    800029c6:	2485                	addw	s1,s1,1
    800029c8:	fd471ae3          	bne	a4,s4,8000299c <balloc+0xee>
    800029cc:	b769                	j	80002956 <balloc+0xa8>
    800029ce:	6906                	ld	s2,64(sp)
    800029d0:	79e2                	ld	s3,56(sp)
    800029d2:	7a42                	ld	s4,48(sp)
    800029d4:	7aa2                	ld	s5,40(sp)
    800029d6:	7b02                	ld	s6,32(sp)
    800029d8:	6be2                	ld	s7,24(sp)
    800029da:	6c42                	ld	s8,16(sp)
    800029dc:	6ca2                	ld	s9,8(sp)
  printf("balloc: out of blocks\n");
    800029de:	00006517          	auipc	a0,0x6
    800029e2:	b0a50513          	add	a0,a0,-1270 # 800084e8 <etext+0x4e8>
    800029e6:	00003097          	auipc	ra,0x3
    800029ea:	656080e7          	jalr	1622(ra) # 8000603c <printf>
  return 0;
    800029ee:	4481                	li	s1,0
    800029f0:	bfa9                	j	8000294a <balloc+0x9c>

00000000800029f2 <bmap>:
// Return the disk block address of the nth block in inode ip.
// If there is no such block, bmap allocates one.
// returns 0 if out of disk space.
static uint
bmap(struct inode *ip, uint bn)
{
    800029f2:	7179                	add	sp,sp,-48
    800029f4:	f406                	sd	ra,40(sp)
    800029f6:	f022                	sd	s0,32(sp)
    800029f8:	ec26                	sd	s1,24(sp)
    800029fa:	e84a                	sd	s2,16(sp)
    800029fc:	e44e                	sd	s3,8(sp)
    800029fe:	1800                	add	s0,sp,48
    80002a00:	89aa                	mv	s3,a0
  uint addr, *a;
  struct buf *bp;

  if(bn < NDIRECT){
    80002a02:	47ad                	li	a5,11
    80002a04:	02b7e863          	bltu	a5,a1,80002a34 <bmap+0x42>
    if((addr = ip->addrs[bn]) == 0){
    80002a08:	02059793          	sll	a5,a1,0x20
    80002a0c:	01e7d593          	srl	a1,a5,0x1e
    80002a10:	00b504b3          	add	s1,a0,a1
    80002a14:	0504a903          	lw	s2,80(s1)
    80002a18:	08091263          	bnez	s2,80002a9c <bmap+0xaa>
      addr = balloc(ip->dev);
    80002a1c:	4108                	lw	a0,0(a0)
    80002a1e:	00000097          	auipc	ra,0x0
    80002a22:	e90080e7          	jalr	-368(ra) # 800028ae <balloc>
    80002a26:	0005091b          	sext.w	s2,a0
      if(addr == 0)
    80002a2a:	06090963          	beqz	s2,80002a9c <bmap+0xaa>
        return 0;
      ip->addrs[bn] = addr;
    80002a2e:	0524a823          	sw	s2,80(s1)
    80002a32:	a0ad                	j	80002a9c <bmap+0xaa>
    }
    return addr;
  }
  bn -= NDIRECT;
    80002a34:	ff45849b          	addw	s1,a1,-12
    80002a38:	0004871b          	sext.w	a4,s1

  if(bn < NINDIRECT){
    80002a3c:	0ff00793          	li	a5,255
    80002a40:	08e7e863          	bltu	a5,a4,80002ad0 <bmap+0xde>
    // Load indirect block, allocating if necessary.
    if((addr = ip->addrs[NDIRECT]) == 0){
    80002a44:	08052903          	lw	s2,128(a0)
    80002a48:	00091f63          	bnez	s2,80002a66 <bmap+0x74>
      addr = balloc(ip->dev);
    80002a4c:	4108                	lw	a0,0(a0)
    80002a4e:	00000097          	auipc	ra,0x0
    80002a52:	e60080e7          	jalr	-416(ra) # 800028ae <balloc>
    80002a56:	0005091b          	sext.w	s2,a0
      if(addr == 0)
    80002a5a:	04090163          	beqz	s2,80002a9c <bmap+0xaa>
    80002a5e:	e052                	sd	s4,0(sp)
        return 0;
      ip->addrs[NDIRECT] = addr;
    80002a60:	0929a023          	sw	s2,128(s3)
    80002a64:	a011                	j	80002a68 <bmap+0x76>
    80002a66:	e052                	sd	s4,0(sp)
    }
    bp = bread(ip->dev, addr);
    80002a68:	85ca                	mv	a1,s2
    80002a6a:	0009a503          	lw	a0,0(s3)
    80002a6e:	00000097          	auipc	ra,0x0
    80002a72:	b80080e7          	jalr	-1152(ra) # 800025ee <bread>
    80002a76:	8a2a                	mv	s4,a0
    a = (uint*)bp->data;
    80002a78:	05850793          	add	a5,a0,88
    if((addr = a[bn]) == 0){
    80002a7c:	02049713          	sll	a4,s1,0x20
    80002a80:	01e75593          	srl	a1,a4,0x1e
    80002a84:	00b784b3          	add	s1,a5,a1
    80002a88:	0004a903          	lw	s2,0(s1)
    80002a8c:	02090063          	beqz	s2,80002aac <bmap+0xba>
      if(addr){
        a[bn] = addr;
        log_write(bp);
      }
    }
    brelse(bp);
    80002a90:	8552                	mv	a0,s4
    80002a92:	00000097          	auipc	ra,0x0
    80002a96:	c8c080e7          	jalr	-884(ra) # 8000271e <brelse>
    return addr;
    80002a9a:	6a02                	ld	s4,0(sp)
  }

  panic("bmap: out of range");
}
    80002a9c:	854a                	mv	a0,s2
    80002a9e:	70a2                	ld	ra,40(sp)
    80002aa0:	7402                	ld	s0,32(sp)
    80002aa2:	64e2                	ld	s1,24(sp)
    80002aa4:	6942                	ld	s2,16(sp)
    80002aa6:	69a2                	ld	s3,8(sp)
    80002aa8:	6145                	add	sp,sp,48
    80002aaa:	8082                	ret
      addr = balloc(ip->dev);
    80002aac:	0009a503          	lw	a0,0(s3)
    80002ab0:	00000097          	auipc	ra,0x0
    80002ab4:	dfe080e7          	jalr	-514(ra) # 800028ae <balloc>
    80002ab8:	0005091b          	sext.w	s2,a0
      if(addr){
    80002abc:	fc090ae3          	beqz	s2,80002a90 <bmap+0x9e>
        a[bn] = addr;
    80002ac0:	0124a023          	sw	s2,0(s1)
        log_write(bp);
    80002ac4:	8552                	mv	a0,s4
    80002ac6:	00001097          	auipc	ra,0x1
    80002aca:	f02080e7          	jalr	-254(ra) # 800039c8 <log_write>
    80002ace:	b7c9                	j	80002a90 <bmap+0x9e>
    80002ad0:	e052                	sd	s4,0(sp)
  panic("bmap: out of range");
    80002ad2:	00006517          	auipc	a0,0x6
    80002ad6:	a2e50513          	add	a0,a0,-1490 # 80008500 <etext+0x500>
    80002ada:	00003097          	auipc	ra,0x3
    80002ade:	518080e7          	jalr	1304(ra) # 80005ff2 <panic>

0000000080002ae2 <iget>:
{
    80002ae2:	7179                	add	sp,sp,-48
    80002ae4:	f406                	sd	ra,40(sp)
    80002ae6:	f022                	sd	s0,32(sp)
    80002ae8:	ec26                	sd	s1,24(sp)
    80002aea:	e84a                	sd	s2,16(sp)
    80002aec:	e44e                	sd	s3,8(sp)
    80002aee:	e052                	sd	s4,0(sp)
    80002af0:	1800                	add	s0,sp,48
    80002af2:	89aa                	mv	s3,a0
    80002af4:	8a2e                	mv	s4,a1
  acquire(&itable.lock);
    80002af6:	00017517          	auipc	a0,0x17
    80002afa:	e7250513          	add	a0,a0,-398 # 80019968 <itable>
    80002afe:	00004097          	auipc	ra,0x4
    80002b02:	a6e080e7          	jalr	-1426(ra) # 8000656c <acquire>
  empty = 0;
    80002b06:	4901                	li	s2,0
  for(ip = &itable.inode[0]; ip < &itable.inode[NINODE]; ip++){
    80002b08:	00017497          	auipc	s1,0x17
    80002b0c:	e7848493          	add	s1,s1,-392 # 80019980 <itable+0x18>
    80002b10:	00019697          	auipc	a3,0x19
    80002b14:	90068693          	add	a3,a3,-1792 # 8001b410 <log>
    80002b18:	a039                	j	80002b26 <iget+0x44>
    if(empty == 0 && ip->ref == 0)    // Remember empty slot.
    80002b1a:	02090b63          	beqz	s2,80002b50 <iget+0x6e>
  for(ip = &itable.inode[0]; ip < &itable.inode[NINODE]; ip++){
    80002b1e:	08848493          	add	s1,s1,136
    80002b22:	02d48a63          	beq	s1,a3,80002b56 <iget+0x74>
    if(ip->ref > 0 && ip->dev == dev && ip->inum == inum){
    80002b26:	449c                	lw	a5,8(s1)
    80002b28:	fef059e3          	blez	a5,80002b1a <iget+0x38>
    80002b2c:	4098                	lw	a4,0(s1)
    80002b2e:	ff3716e3          	bne	a4,s3,80002b1a <iget+0x38>
    80002b32:	40d8                	lw	a4,4(s1)
    80002b34:	ff4713e3          	bne	a4,s4,80002b1a <iget+0x38>
      ip->ref++;
    80002b38:	2785                	addw	a5,a5,1
    80002b3a:	c49c                	sw	a5,8(s1)
      release(&itable.lock);
    80002b3c:	00017517          	auipc	a0,0x17
    80002b40:	e2c50513          	add	a0,a0,-468 # 80019968 <itable>
    80002b44:	00004097          	auipc	ra,0x4
    80002b48:	adc080e7          	jalr	-1316(ra) # 80006620 <release>
      return ip;
    80002b4c:	8926                	mv	s2,s1
    80002b4e:	a03d                	j	80002b7c <iget+0x9a>
    if(empty == 0 && ip->ref == 0)    // Remember empty slot.
    80002b50:	f7f9                	bnez	a5,80002b1e <iget+0x3c>
      empty = ip;
    80002b52:	8926                	mv	s2,s1
    80002b54:	b7e9                	j	80002b1e <iget+0x3c>
  if(empty == 0)
    80002b56:	02090c63          	beqz	s2,80002b8e <iget+0xac>
  ip->dev = dev;
    80002b5a:	01392023          	sw	s3,0(s2)
  ip->inum = inum;
    80002b5e:	01492223          	sw	s4,4(s2)
  ip->ref = 1;
    80002b62:	4785                	li	a5,1
    80002b64:	00f92423          	sw	a5,8(s2)
  ip->valid = 0;
    80002b68:	04092023          	sw	zero,64(s2)
  release(&itable.lock);
    80002b6c:	00017517          	auipc	a0,0x17
    80002b70:	dfc50513          	add	a0,a0,-516 # 80019968 <itable>
    80002b74:	00004097          	auipc	ra,0x4
    80002b78:	aac080e7          	jalr	-1364(ra) # 80006620 <release>
}
    80002b7c:	854a                	mv	a0,s2
    80002b7e:	70a2                	ld	ra,40(sp)
    80002b80:	7402                	ld	s0,32(sp)
    80002b82:	64e2                	ld	s1,24(sp)
    80002b84:	6942                	ld	s2,16(sp)
    80002b86:	69a2                	ld	s3,8(sp)
    80002b88:	6a02                	ld	s4,0(sp)
    80002b8a:	6145                	add	sp,sp,48
    80002b8c:	8082                	ret
    panic("iget: no inodes");
    80002b8e:	00006517          	auipc	a0,0x6
    80002b92:	98a50513          	add	a0,a0,-1654 # 80008518 <etext+0x518>
    80002b96:	00003097          	auipc	ra,0x3
    80002b9a:	45c080e7          	jalr	1116(ra) # 80005ff2 <panic>

0000000080002b9e <fsinit>:
fsinit(int dev) {
    80002b9e:	7179                	add	sp,sp,-48
    80002ba0:	f406                	sd	ra,40(sp)
    80002ba2:	f022                	sd	s0,32(sp)
    80002ba4:	ec26                	sd	s1,24(sp)
    80002ba6:	e84a                	sd	s2,16(sp)
    80002ba8:	e44e                	sd	s3,8(sp)
    80002baa:	1800                	add	s0,sp,48
    80002bac:	892a                	mv	s2,a0
  bp = bread(dev, 1);
    80002bae:	4585                	li	a1,1
    80002bb0:	00000097          	auipc	ra,0x0
    80002bb4:	a3e080e7          	jalr	-1474(ra) # 800025ee <bread>
    80002bb8:	84aa                	mv	s1,a0
  memmove(sb, bp->data, sizeof(*sb));
    80002bba:	00017997          	auipc	s3,0x17
    80002bbe:	d8e98993          	add	s3,s3,-626 # 80019948 <sb>
    80002bc2:	02000613          	li	a2,32
    80002bc6:	05850593          	add	a1,a0,88
    80002bca:	854e                	mv	a0,s3
    80002bcc:	ffffd097          	auipc	ra,0xffffd
    80002bd0:	654080e7          	jalr	1620(ra) # 80000220 <memmove>
  brelse(bp);
    80002bd4:	8526                	mv	a0,s1
    80002bd6:	00000097          	auipc	ra,0x0
    80002bda:	b48080e7          	jalr	-1208(ra) # 8000271e <brelse>
  if(sb.magic != FSMAGIC)
    80002bde:	0009a703          	lw	a4,0(s3)
    80002be2:	102037b7          	lui	a5,0x10203
    80002be6:	04078793          	add	a5,a5,64 # 10203040 <_entry-0x6fdfcfc0>
    80002bea:	02f71263          	bne	a4,a5,80002c0e <fsinit+0x70>
  initlog(dev, &sb);
    80002bee:	00017597          	auipc	a1,0x17
    80002bf2:	d5a58593          	add	a1,a1,-678 # 80019948 <sb>
    80002bf6:	854a                	mv	a0,s2
    80002bf8:	00001097          	auipc	ra,0x1
    80002bfc:	b60080e7          	jalr	-1184(ra) # 80003758 <initlog>
}
    80002c00:	70a2                	ld	ra,40(sp)
    80002c02:	7402                	ld	s0,32(sp)
    80002c04:	64e2                	ld	s1,24(sp)
    80002c06:	6942                	ld	s2,16(sp)
    80002c08:	69a2                	ld	s3,8(sp)
    80002c0a:	6145                	add	sp,sp,48
    80002c0c:	8082                	ret
    panic("invalid file system");
    80002c0e:	00006517          	auipc	a0,0x6
    80002c12:	91a50513          	add	a0,a0,-1766 # 80008528 <etext+0x528>
    80002c16:	00003097          	auipc	ra,0x3
    80002c1a:	3dc080e7          	jalr	988(ra) # 80005ff2 <panic>

0000000080002c1e <iinit>:
{
    80002c1e:	7179                	add	sp,sp,-48
    80002c20:	f406                	sd	ra,40(sp)
    80002c22:	f022                	sd	s0,32(sp)
    80002c24:	ec26                	sd	s1,24(sp)
    80002c26:	e84a                	sd	s2,16(sp)
    80002c28:	e44e                	sd	s3,8(sp)
    80002c2a:	1800                	add	s0,sp,48
  initlock(&itable.lock, "itable");
    80002c2c:	00006597          	auipc	a1,0x6
